libfflas_c.so.1:fadd_1_modular_double
libfflas_c.so.1:fadd_2_modular_double
libfflas_c.so.1:faddin_1_modular_double
libfflas_c.so.1:faddin_2_modular_double
libfflas_c.so.1:fassign_1_modular_double
libfflas_c.so.1:fassign_2_modular_double
libfflas_c.so.1:faxpy_1_modular_double
libfflas_c.so.1:faxpy_2_modular_double
libfflas_c.so.1:fdot_1_modular_double
libfflas_c.so.1:fequal_1_modular_double
libfflas_c.so.1:fequal_2_modular_double
libfflas_c.so.1:fgemm_3_modular_double
libfflas_c.so.1:fgemv_2_modular_double
libfflas_c.so.1:fger_2_modular_double
libfflas_c.so.1:fidentity_2_modular_double
libfflas_c.so.1:fiszero_1_modular_double
libfflas_c.so.1:fiszero_2_modular_double
libfflas_c.so.1:fmove_2_modular_double
libfflas_c.so.1:fneg_1_modular_double
libfflas_c.so.1:fneg_2_modular_double
libfflas_c.so.1:fnegin_1_modular_double
libfflas_c.so.1:fnegin_2_modular_double
libfflas_c.so.1:freduce_1_modular_double
libfflas_c.so.1:freduce_2_modular_double
libfflas_c.so.1:freducein_1_modular_double
libfflas_c.so.1:freducein_2_modular_double
libfflas_c.so.1:fscal_1_modular_double
libfflas_c.so.1:fscal_2_modular_double
libfflas_c.so.1:fscalin_1_modular_double
libfflas_c.so.1:fscalin_2_modular_double
libfflas_c.so.1:fsquare_3_modular_double
libfflas_c.so.1:fsub_1_modular_double
libfflas_c.so.1:fsub_2_modular_double
libfflas_c.so.1:fsubin_1_modular_double
libfflas_c.so.1:fsubin_2_modular_double
libfflas_c.so.1:fswap_1_modular_double
libfflas_c.so.1:ftrmm_3_modular_double
libfflas_c.so.1:ftrsm_3_modular_double
libfflas_c.so.1:ftrsv_2_modular_double
libfflas_c.so.1:fzero_1_modular_double
libfflas_c.so.1:fzero_2_modular_double
libffpack_c.so.1:ColRankProfileSubmatrixIndices_modular_double
libffpack_c.so.1:ColRankProfileSubmatrix_modular_double
libffpack_c.so.1:ColumnEchelonForm_modular_double
libffpack_c.so.1:ColumnEchelonForm_modular_float
libffpack_c.so.1:ColumnEchelonForm_modular_int32_t
libffpack_c.so.1:ColumnRankProfile_modular_double
libffpack_c.so.1:Det_modular_double
libffpack_c.so.1:Invert2_modular_double
libffpack_c.so.1:Invert_modular_double
libffpack_c.so.1:Invertin_modular_double
libffpack_c.so.1:IsSingular_modular_double
libffpack_c.so.1:KrylovElim_modular_double
libffpack_c.so.1:LAPACKPerm2MathPerm
libffpack_c.so.1:LeadingSubmatrixRankProfiles
libffpack_c.so.1:MathPerm2LAPACKPerm
libffpack_c.so.1:MatrixApplyS_modular_double
libffpack_c.so.1:MatrixApplyT_modular_double
libffpack_c.so.1:PLUQtoEchelonPermutation
libffpack_c.so.1:PermApplyS_double
libffpack_c.so.1:PermApplyT_double
libffpack_c.so.1:RankProfileFromLU
libffpack_c.so.1:Rank_modular_double
libffpack_c.so.1:ReducedColumnEchelonForm_modular_double
libffpack_c.so.1:ReducedColumnEchelonForm_modular_float
libffpack_c.so.1:ReducedColumnEchelonForm_modular_int32_t
libffpack_c.so.1:ReducedRowEchelonForm_modular_double
libffpack_c.so.1:ReducedRowEchelonForm_modular_float
libffpack_c.so.1:ReducedRowEchelonForm_modular_int32_t
libffpack_c.so.1:RowEchelonForm_modular_double
libffpack_c.so.1:RowEchelonForm_modular_float
libffpack_c.so.1:RowEchelonForm_modular_int32_t
libffpack_c.so.1:RowRankProfileSubmatrixIndices_modular_double
libffpack_c.so.1:RowRankProfileSubmatrix_modular_double
libffpack_c.so.1:RowRankProfile_modular_double
libffpack_c.so.1:Solve_modular_double
libffpack_c.so.1:SpecRankProfile_modular_double
libffpack_c.so.1:_Z19PLUQ_modular_doubledN5FFLAS10FFLAS_DIAGEmmPdmPmS2_b
libffpack_c.so.1:_Z20fgesv_modular_doubledN5FFLAS10FFLAS_SIDEEmmmPdmS1_mPKdmPib
libffpack_c.so.1:_Z21applyP_modular_doubledN5FFLAS10FFLAS_SIDEENS_15FFLAS_TRANSPOSEEmmmPdmPKmb
libffpack_c.so.1:_Z21ftrtri_modular_doubledN5FFLAS10FFLAS_UPLOENS_10FFLAS_DIAGEmPdmb
libffpack_c.so.1:_Z21ftrtrm_modular_doubledN5FFLAS10FFLAS_SIDEENS_10FFLAS_DIAGEmPdmb
libffpack_c.so.1:_Z22fgesvin_modular_doubledN5FFLAS10FFLAS_SIDEEmmPdmS1_mPib
libffpack_c.so.1:_Z22fgetrsv_modular_doubledN5FFLAS10FFLAS_SIDEEmmmmPdmPKmS3_S1_mPKdmPib
libffpack_c.so.1:_Z22solveLB_modular_doubledN5FFLAS10FFLAS_SIDEEmmmPdmPKmS1_mb
libffpack_c.so.1:_Z23LUdivine_modular_doubledN5FFLAS10FFLAS_DIAGENS_15FFLAS_TRANSPOSEEmmPdmPmS3_15FFPACK_C_LU_TAGmb
libffpack_c.so.1:_Z23fgetrsin_modular_doubledN5FFLAS10FFLAS_SIDEEmmmPdmPKmS3_S1_mPib
libffpack_c.so.1:_Z23solveLB2_modular_doubledN5FFLAS10FFLAS_SIDEEmmmPdmPKmS1_mb
libffpack_c.so.1:_Z28getTriangular_modular_doubledN5FFLAS10FFLAS_UPLOENS_10FFLAS_DIAGEmmmPKdmPdmbb
libffpack_c.so.1:_Z29NullSpaceBasis_modular_doubledN5FFLAS10FFLAS_SIDEEmmPdmPS1_PmS3_b
libffpack_c.so.1:_Z29getEchelonForm_modular_doubledN5FFLAS10FFLAS_UPLOENS_10FFLAS_DIAGEmmmPKmPKdmPdmb15FFPACK_C_LU_TAGb
libffpack_c.so.1:_Z29pRowEchelonForm_modular_floatfmmPfmPmS0_b15FFPACK_C_LU_TAGb
libffpack_c.so.1:_Z30getTriangularin_modular_doubledN5FFLAS10FFLAS_UPLOENS_10FFLAS_DIAGEmmmPdmb
libffpack_c.so.1:_Z30pRowEchelonForm_modular_doubledmmPdmPmS0_b15FFPACK_C_LU_TAGb
libffpack_c.so.1:_Z31getEchelonFormin_modular_doubledN5FFLAS10FFLAS_UPLOENS_10FFLAS_DIAGEmmmPKmPdm15FFPACK_C_LU_TAGb
libffpack_c.so.1:_Z31pRowEchelonForm_modular_int32_timmPimPmS0_b15FFPACK_C_LU_TAGb
libffpack_c.so.1:_Z32pColumnEchelonForm_modular_floatfmmPfmPmS0_b15FFPACK_C_LU_TAGb
libffpack_c.so.1:_Z33pColumnEchelonForm_modular_doubledmmPdmPmS0_b15FFPACK_C_LU_TAGb
libffpack_c.so.1:_Z34getEchelonTransform_modular_doubledN5FFLAS10FFLAS_UPLOENS_10FFLAS_DIAGEmmmPKmS3_PKdmPdm15FFPACK_C_LU_TAGb
libffpack_c.so.1:_Z34pColumnEchelonForm_modular_int32_timmPimPmS0_b15FFPACK_C_LU_TAGb
libffpack_c.so.1:_Z36RandomNullSpaceVector_modular_doubledN5FFLAS10FFLAS_SIDEEmmPdmS1_mb
libffpack_c.so.1:_Z36getReducedEchelonForm_modular_doubledN5FFLAS10FFLAS_UPLOEmmmPKmPKdmPdmb15FFPACK_C_LU_TAGb
libffpack_c.so.1:_Z36pReducedRowEchelonForm_modular_floatfmmPfmPmS0_b15FFPACK_C_LU_TAGb
libffpack_c.so.1:_Z37pReducedRowEchelonForm_modular_doubledmmPdmPmS0_b15FFPACK_C_LU_TAGb
libffpack_c.so.1:_Z38getReducedEchelonFormin_modular_doubledN5FFLAS10FFLAS_UPLOEmmmPKmPdm15FFPACK_C_LU_TAGb
libffpack_c.so.1:_Z38pReducedRowEchelonForm_modular_int32_timmPimPmS0_b15FFPACK_C_LU_TAGb
libffpack_c.so.1:_Z39pReducedColumnEchelonForm_modular_floatfmmPfmPmS0_b15FFPACK_C_LU_TAGb
libffpack_c.so.1:_Z40pReducedColumnEchelonForm_modular_doubledmmPdmPmS0_b15FFPACK_C_LU_TAGb
libffpack_c.so.1:_Z41getReducedEchelonTransform_modular_doubledN5FFLAS10FFLAS_UPLOEmmmPKmS2_PKdmPdm15FFPACK_C_LU_TAGb
libffpack_c.so.1:_Z41pReducedColumnEchelonForm_modular_int32_timmPimPmS0_b15FFPACK_C_LU_TAGb
libffpack_c.so.1:composePermutationsLLL
libffpack_c.so.1:composePermutationsLLM
libffpack_c.so.1:composePermutationsMLM
libffpack_c.so.1:cyclic_shift_col_modular_double
libffpack_c.so.1:cyclic_shift_mathPerm
libffpack_c.so.1:cyclic_shift_row_modular_double
libffpack_c.so.1:trinv_left_modular_double
