UNKNOWN:_ZN5FFLAS4faddIN6Givaro15ModularBalancedIdEEEEvRKT_mNS4_16ConstElement_ptrEmS7_mNS4_11Element_ptrEm
UNKNOWN:_ZN5FFLAS4faddIN6Givaro15ModularBalancedIdEEEEvRKT_mmNS4_16ConstElement_ptrEmS7_mNS4_11Element_ptrEm
UNKNOWN:_ZN5FFLAS4faddIN6Givaro7ModularIddvEEEEvRKT_mNS4_16ConstElement_ptrEmS7_mNS4_11Element_ptrEm
UNKNOWN:_ZN5FFLAS4faddIN6Givaro7ModularIddvEEEEvRKT_mmNS4_16ConstElement_ptrEmS7_mNS4_11Element_ptrEm
UNKNOWN:_ZN5FFLAS4fdotIN6Givaro15ModularBalancedIdEEEENT_7ElementERKS4_mNS4_16ConstElement_ptrEmS8_m
UNKNOWN:_ZN5FFLAS4fdotIN6Givaro7ModularIddvEEEENT_7ElementERKS4_mNS4_16ConstElement_ptrEmS8_m
UNKNOWN:_ZN5FFLAS4fgerIN6Givaro15ModularBalancedIdEEEEvRKT_mmNS4_7ElementENS4_16ConstElement_ptrEmS8_mNS4_11Element_ptrEm
UNKNOWN:_ZN5FFLAS4fgerIN6Givaro15ModularBalancedIfEEEEvRKT_mmNS4_7ElementENS4_16ConstElement_ptrEmS8_mNS4_11Element_ptrEm
UNKNOWN:_ZN5FFLAS4fgerIN6Givaro15ModularBalancedIlEEEEvRKT_mmNS4_7ElementENS4_16ConstElement_ptrEmS8_mNS4_11Element_ptrEm
UNKNOWN:_ZN5FFLAS4fgerIN6Givaro7ModularIddvEEEEvRKT_mmNS4_7ElementENS4_16ConstElement_ptrEmS8_mNS4_11Element_ptrEm
UNKNOWN:_ZN5FFLAS4fgerIN6Givaro7ModularIffvEEEEvRKT_mmNS4_7ElementENS4_16ConstElement_ptrEmS8_mNS4_11Element_ptrEm
UNKNOWN:_ZN5FFLAS4fgerIN6Givaro7ModularIllvEEEEvRKT_mmNS4_7ElementENS4_16ConstElement_ptrEmS8_mNS4_11Element_ptrEm
UNKNOWN:_ZN5FFLAS4fnegIN6Givaro15ModularBalancedIdEEEEvRKT_mNS4_16ConstElement_ptrEmNS4_11Element_ptrEm
UNKNOWN:_ZN5FFLAS4fnegIN6Givaro15ModularBalancedIdEEEEvRKT_mmNS4_16ConstElement_ptrEmNS4_11Element_ptrEm
UNKNOWN:_ZN5FFLAS4fnegIN6Givaro7ModularIddvEEEEvRKT_mNS4_16ConstElement_ptrEmNS4_11Element_ptrEm
UNKNOWN:_ZN5FFLAS4fnegIN6Givaro7ModularIddvEEEEvRKT_mmNS4_16ConstElement_ptrEmNS4_11Element_ptrEm
UNKNOWN:_ZN5FFLAS4fsubIN6Givaro15ModularBalancedIdEEEEvRKT_mNS4_16ConstElement_ptrEmS7_mNS4_11Element_ptrEm
UNKNOWN:_ZN5FFLAS4fsubIN6Givaro15ModularBalancedIdEEEEvRKT_mmNS4_16ConstElement_ptrEmS7_mNS4_11Element_ptrEm
UNKNOWN:_ZN5FFLAS4fsubIN6Givaro7ModularIddvEEEEvRKT_mNS4_16ConstElement_ptrEmS7_mNS4_11Element_ptrEm
UNKNOWN:_ZN5FFLAS4fsubIN6Givaro7ModularIddvEEEEvRKT_mmNS4_16ConstElement_ptrEmS7_mNS4_11Element_ptrEm
UNKNOWN:_ZN5FFLAS5faxpyIN6Givaro15ModularBalancedIdEEEEvRKT_mNS4_7ElementENS4_16ConstElement_ptrEmNS4_11Element_ptrEm
UNKNOWN:_ZN5FFLAS5faxpyIN6Givaro15ModularBalancedIdEEEEvRKT_mmNS4_7ElementENS4_16ConstElement_ptrEmNS4_11Element_ptrEm
UNKNOWN:_ZN5FFLAS5faxpyIN6Givaro7ModularIddvEEEEvRKT_mNS4_7ElementENS4_16ConstElement_ptrEmNS4_11Element_ptrEm
UNKNOWN:_ZN5FFLAS5faxpyIN6Givaro7ModularIddvEEEEvRKT_mmNS4_7ElementENS4_16ConstElement_ptrEmNS4_11Element_ptrEm
UNKNOWN:_ZN5FFLAS5fgemmIN6Givaro15ModularBalancedIdEEEENT_11Element_ptrERKS4_NS_15FFLAS_TRANSPOSEES8_mmmNS4_7ElementENS4_16ConstElement_ptrEmSA_mS9_S5_m
UNKNOWN:_ZN5FFLAS5fgemmIN6Givaro15ModularBalancedIdEEEENT_11Element_ptrERKS4_NS_15FFLAS_TRANSPOSEES8_mmmNS4_7ElementENS4_16ConstElement_ptrEmSA_mS9_S5_mNS_12ParSeqHelper10SequentialE
UNKNOWN:_ZN5FFLAS5fgemmIN6Givaro15ModularBalancedIdEENS_15CuttingStrategy9RecursiveENS_17StrategyParameter12TwoDAdaptiveEEENT_11Element_ptrERKS8_NS_15FFLAS_TRANSPOSEESC_mmmNS8_7ElementENS8_16ConstElement_ptrEmSE_mSD_S9_mNS_12ParSeqHelper8ParallelIT0_T1_EE
UNKNOWN:_ZN5FFLAS5fgemmIN6Givaro15ModularBalancedIfEEEENT_11Element_ptrERKS4_NS_15FFLAS_TRANSPOSEES8_mmmNS4_7ElementENS4_16ConstElement_ptrEmSA_mS9_S5_m
UNKNOWN:_ZN5FFLAS5fgemmIN6Givaro15ModularBalancedIfEEEENT_11Element_ptrERKS4_NS_15FFLAS_TRANSPOSEES8_mmmNS4_7ElementENS4_16ConstElement_ptrEmSA_mS9_S5_mNS_12ParSeqHelper10SequentialE
UNKNOWN:_ZN5FFLAS5fgemmIN6Givaro15ModularBalancedIfEENS_15CuttingStrategy9RecursiveENS_17StrategyParameter12TwoDAdaptiveEEENT_11Element_ptrERKS8_NS_15FFLAS_TRANSPOSEESC_mmmNS8_7ElementENS8_16ConstElement_ptrEmSE_mSD_S9_mNS_12ParSeqHelper8ParallelIT0_T1_EE
UNKNOWN:_ZN5FFLAS5fgemmIN6Givaro15ModularBalancedIlEEEENT_11Element_ptrERKS4_NS_15FFLAS_TRANSPOSEES8_mmmNS4_7ElementENS4_16ConstElement_ptrEmSA_mS9_S5_m
UNKNOWN:_ZN5FFLAS5fgemmIN6Givaro15ModularBalancedIlEEEENT_11Element_ptrERKS4_NS_15FFLAS_TRANSPOSEES8_mmmNS4_7ElementENS4_16ConstElement_ptrEmSA_mS9_S5_mNS_12ParSeqHelper10SequentialE
UNKNOWN:_ZN5FFLAS5fgemmIN6Givaro15ModularBalancedIlEENS_15CuttingStrategy9RecursiveENS_17StrategyParameter12TwoDAdaptiveEEENT_11Element_ptrERKS8_NS_15FFLAS_TRANSPOSEESC_mmmNS8_7ElementENS8_16ConstElement_ptrEmSE_mSD_S9_mNS_12ParSeqHelper8ParallelIT0_T1_EE
UNKNOWN:_ZN5FFLAS5fgemmIN6Givaro7ModularIddvEEEENT_11Element_ptrERKS4_NS_15FFLAS_TRANSPOSEES8_mmmNS4_7ElementENS4_16ConstElement_ptrEmSA_mS9_S5_m
UNKNOWN:_ZN5FFLAS5fgemmIN6Givaro7ModularIddvEEEENT_11Element_ptrERKS4_NS_15FFLAS_TRANSPOSEES8_mmmNS4_7ElementENS4_16ConstElement_ptrEmSA_mS9_S5_mNS_12ParSeqHelper10SequentialE
UNKNOWN:_ZN5FFLAS5fgemmIN6Givaro7ModularIddvEENS_15CuttingStrategy9RecursiveENS_17StrategyParameter12TwoDAdaptiveEEENT_11Element_ptrERKS8_NS_15FFLAS_TRANSPOSEESC_mmmNS8_7ElementENS8_16ConstElement_ptrEmSE_mSD_S9_mNS_12ParSeqHelper8ParallelIT0_T1_EE
UNKNOWN:_ZN5FFLAS5fgemmIN6Givaro7ModularIffvEEEENT_11Element_ptrERKS4_NS_15FFLAS_TRANSPOSEES8_mmmNS4_7ElementENS4_16ConstElement_ptrEmSA_mS9_S5_m
UNKNOWN:_ZN5FFLAS5fgemmIN6Givaro7ModularIffvEEEENT_11Element_ptrERKS4_NS_15FFLAS_TRANSPOSEES8_mmmNS4_7ElementENS4_16ConstElement_ptrEmSA_mS9_S5_mNS_12ParSeqHelper10SequentialE
UNKNOWN:_ZN5FFLAS5fgemmIN6Givaro7ModularIffvEENS_15CuttingStrategy9RecursiveENS_17StrategyParameter12TwoDAdaptiveEEENT_11Element_ptrERKS8_NS_15FFLAS_TRANSPOSEESC_mmmNS8_7ElementENS8_16ConstElement_ptrEmSE_mSD_S9_mNS_12ParSeqHelper8ParallelIT0_T1_EE
UNKNOWN:_ZN5FFLAS5fgemmIN6Givaro7ModularIllvEEEENT_11Element_ptrERKS4_NS_15FFLAS_TRANSPOSEES8_mmmNS4_7ElementENS4_16ConstElement_ptrEmSA_mS9_S5_m
UNKNOWN:_ZN5FFLAS5fgemmIN6Givaro7ModularIllvEEEENT_11Element_ptrERKS4_NS_15FFLAS_TRANSPOSEES8_mmmNS4_7ElementENS4_16ConstElement_ptrEmSA_mS9_S5_mNS_12ParSeqHelper10SequentialE
UNKNOWN:_ZN5FFLAS5fgemmIN6Givaro7ModularIllvEENS_15CuttingStrategy9RecursiveENS_17StrategyParameter12TwoDAdaptiveEEENT_11Element_ptrERKS8_NS_15FFLAS_TRANSPOSEESC_mmmNS8_7ElementENS8_16ConstElement_ptrEmSE_mSD_S9_mNS_12ParSeqHelper8ParallelIT0_T1_EE
UNKNOWN:_ZN5FFLAS5fgemvIN6Givaro15ModularBalancedIdEEEENT_11Element_ptrERKS4_NS_15FFLAS_TRANSPOSEEmmNS4_7ElementENS4_16ConstElement_ptrEmSA_mS9_S5_m
UNKNOWN:_ZN5FFLAS5fgemvIN6Givaro15ModularBalancedIfEEEENT_11Element_ptrERKS4_NS_15FFLAS_TRANSPOSEEmmNS4_7ElementENS4_16ConstElement_ptrEmSA_mS9_S5_m
UNKNOWN:_ZN5FFLAS5fgemvIN6Givaro15ModularBalancedIlEEEENT_11Element_ptrERKS4_NS_15FFLAS_TRANSPOSEEmmNS4_7ElementENS4_16ConstElement_ptrEmSA_mS9_S5_m
UNKNOWN:_ZN5FFLAS5fgemvIN6Givaro7ModularIddvEEEENT_11Element_ptrERKS4_NS_15FFLAS_TRANSPOSEEmmNS4_7ElementENS4_16ConstElement_ptrEmSA_mS9_S5_m
UNKNOWN:_ZN5FFLAS5fgemvIN6Givaro7ModularIffvEEEENT_11Element_ptrERKS4_NS_15FFLAS_TRANSPOSEEmmNS4_7ElementENS4_16ConstElement_ptrEmSA_mS9_S5_m
UNKNOWN:_ZN5FFLAS5fgemvIN6Givaro7ModularIllvEEEENT_11Element_ptrERKS4_NS_15FFLAS_TRANSPOSEEmmNS4_7ElementENS4_16ConstElement_ptrEmSA_mS9_S5_m
UNKNOWN:_ZN5FFLAS5fmoveIN6Givaro15ModularBalancedIdEEEEvRKT_mmNS4_11Element_ptrEmS7_m
UNKNOWN:_ZN5FFLAS5fmoveIN6Givaro7ModularIddvEEEEvRKT_mmNS4_11Element_ptrEmS7_m
UNKNOWN:_ZN5FFLAS5fscalIN6Givaro15ModularBalancedIdEEEEvRKT_mNS4_7ElementENS4_16ConstElement_ptrEmNS4_11Element_ptrEm
UNKNOWN:_ZN5FFLAS5fscalIN6Givaro15ModularBalancedIdEEEEvRKT_mmNS4_7ElementENS4_16ConstElement_ptrEmNS4_11Element_ptrEm
UNKNOWN:_ZN5FFLAS5fscalIN6Givaro15ModularBalancedIfEEEEvRKT_mNS4_7ElementENS4_16ConstElement_ptrEmNS4_11Element_ptrEm
UNKNOWN:_ZN5FFLAS5fscalIN6Givaro7ModularIddvEEEEvRKT_mNS4_7ElementENS4_16ConstElement_ptrEmNS4_11Element_ptrEm
UNKNOWN:_ZN5FFLAS5fscalIN6Givaro7ModularIddvEEEEvRKT_mmNS4_7ElementENS4_16ConstElement_ptrEmNS4_11Element_ptrEm
UNKNOWN:_ZN5FFLAS5fscalIN6Givaro7ModularIffvEEEEvRKT_mNS4_7ElementENS4_16ConstElement_ptrEmNS4_11Element_ptrEm
UNKNOWN:_ZN5FFLAS5fswapIN6Givaro15ModularBalancedIdEEEEvRKT_mNS4_11Element_ptrEmS7_m
UNKNOWN:_ZN5FFLAS5fswapIN6Givaro15ModularBalancedIfEEEEvRKT_mNS4_11Element_ptrEmS7_m
UNKNOWN:_ZN5FFLAS5fswapIN6Givaro15ModularBalancedIlEEEEvRKT_mNS4_11Element_ptrEmS7_m
UNKNOWN:_ZN5FFLAS5fswapIN6Givaro7ModularIddvEEEEvRKT_mNS4_11Element_ptrEmS7_m
UNKNOWN:_ZN5FFLAS5fswapIN6Givaro7ModularIffvEEEEvRKT_mNS4_11Element_ptrEmS7_m
UNKNOWN:_ZN5FFLAS5fswapIN6Givaro7ModularIllvEEEEvRKT_mNS4_11Element_ptrEmS7_m
UNKNOWN:_ZN5FFLAS5ftrmmIN6Givaro15ModularBalancedIdEEEEvRKT_NS_10FFLAS_SIDEENS_10FFLAS_UPLOENS_15FFLAS_TRANSPOSEENS_10FFLAS_DIAGEmmNS4_7ElementENS4_16ConstElement_ptrEmNS4_11Element_ptrEm
UNKNOWN:_ZN5FFLAS5ftrmmIN6Givaro15ModularBalancedIfEEEEvRKT_NS_10FFLAS_SIDEENS_10FFLAS_UPLOENS_15FFLAS_TRANSPOSEENS_10FFLAS_DIAGEmmNS4_7ElementENS4_16ConstElement_ptrEmNS4_11Element_ptrEm
UNKNOWN:_ZN5FFLAS5ftrmmIN6Givaro15ModularBalancedIlEEEEvRKT_NS_10FFLAS_SIDEENS_10FFLAS_UPLOENS_15FFLAS_TRANSPOSEENS_10FFLAS_DIAGEmmNS4_7ElementENS4_16ConstElement_ptrEmNS4_11Element_ptrEm
UNKNOWN:_ZN5FFLAS5ftrmmIN6Givaro7ModularIddvEEEEvRKT_NS_10FFLAS_SIDEENS_10FFLAS_UPLOENS_15FFLAS_TRANSPOSEENS_10FFLAS_DIAGEmmNS4_7ElementENS4_16ConstElement_ptrEmNS4_11Element_ptrEm
UNKNOWN:_ZN5FFLAS5ftrmmIN6Givaro7ModularIffvEEEEvRKT_NS_10FFLAS_SIDEENS_10FFLAS_UPLOENS_15FFLAS_TRANSPOSEENS_10FFLAS_DIAGEmmNS4_7ElementENS4_16ConstElement_ptrEmNS4_11Element_ptrEm
UNKNOWN:_ZN5FFLAS5ftrmmIN6Givaro7ModularIllvEEEEvRKT_NS_10FFLAS_SIDEENS_10FFLAS_UPLOENS_15FFLAS_TRANSPOSEENS_10FFLAS_DIAGEmmNS4_7ElementENS4_16ConstElement_ptrEmNS4_11Element_ptrEm
UNKNOWN:_ZN5FFLAS5ftrsmIN6Givaro15ModularBalancedIdEEEEvRKT_NS_10FFLAS_SIDEENS_10FFLAS_UPLOENS_15FFLAS_TRANSPOSEENS_10FFLAS_DIAGEmmNS4_7ElementENS4_16ConstElement_ptrEmNS4_11Element_ptrEm
UNKNOWN:_ZN5FFLAS5ftrsmIN6Givaro15ModularBalancedIfEEEEvRKT_NS_10FFLAS_SIDEENS_10FFLAS_UPLOENS_15FFLAS_TRANSPOSEENS_10FFLAS_DIAGEmmNS4_7ElementENS4_16ConstElement_ptrEmNS4_11Element_ptrEm
UNKNOWN:_ZN5FFLAS5ftrsmIN6Givaro15ModularBalancedIlEEEEvRKT_NS_10FFLAS_SIDEENS_10FFLAS_UPLOENS_15FFLAS_TRANSPOSEENS_10FFLAS_DIAGEmmNS4_7ElementENS4_16ConstElement_ptrEmNS4_11Element_ptrEm
UNKNOWN:_ZN5FFLAS5ftrsmIN6Givaro7ModularIddvEEEEvRKT_NS_10FFLAS_SIDEENS_10FFLAS_UPLOENS_15FFLAS_TRANSPOSEENS_10FFLAS_DIAGEmmNS4_7ElementENS4_16ConstElement_ptrEmNS4_11Element_ptrEm
UNKNOWN:_ZN5FFLAS5ftrsmIN6Givaro7ModularIffvEEEEvRKT_NS_10FFLAS_SIDEENS_10FFLAS_UPLOENS_15FFLAS_TRANSPOSEENS_10FFLAS_DIAGEmmNS4_7ElementENS4_16ConstElement_ptrEmNS4_11Element_ptrEm
UNKNOWN:_ZN5FFLAS5ftrsmIN6Givaro7ModularIllvEEEEvRKT_NS_10FFLAS_SIDEENS_10FFLAS_UPLOENS_15FFLAS_TRANSPOSEENS_10FFLAS_DIAGEmmNS4_7ElementENS4_16ConstElement_ptrEmNS4_11Element_ptrEm
UNKNOWN:_ZN5FFLAS5ftrsvIN6Givaro15ModularBalancedIdEEEEvRKT_NS_10FFLAS_UPLOENS_15FFLAS_TRANSPOSEENS_10FFLAS_DIAGEmNS4_16ConstElement_ptrEmNS4_11Element_ptrEi
UNKNOWN:_ZN5FFLAS5ftrsvIN6Givaro15ModularBalancedIfEEEEvRKT_NS_10FFLAS_UPLOENS_15FFLAS_TRANSPOSEENS_10FFLAS_DIAGEmNS4_16ConstElement_ptrEmNS4_11Element_ptrEi
UNKNOWN:_ZN5FFLAS5ftrsvIN6Givaro15ModularBalancedIlEEEEvRKT_NS_10FFLAS_UPLOENS_15FFLAS_TRANSPOSEENS_10FFLAS_DIAGEmNS4_16ConstElement_ptrEmNS4_11Element_ptrEi
UNKNOWN:_ZN5FFLAS5ftrsvIN6Givaro7ModularIddvEEEEvRKT_NS_10FFLAS_UPLOENS_15FFLAS_TRANSPOSEENS_10FFLAS_DIAGEmNS4_16ConstElement_ptrEmNS4_11Element_ptrEi
UNKNOWN:_ZN5FFLAS5ftrsvIN6Givaro7ModularIffvEEEEvRKT_NS_10FFLAS_UPLOENS_15FFLAS_TRANSPOSEENS_10FFLAS_DIAGEmNS4_16ConstElement_ptrEmNS4_11Element_ptrEi
UNKNOWN:_ZN5FFLAS5ftrsvIN6Givaro7ModularIllvEEEEvRKT_NS_10FFLAS_UPLOENS_15FFLAS_TRANSPOSEENS_10FFLAS_DIAGEmNS4_16ConstElement_ptrEmNS4_11Element_ptrEi
UNKNOWN:_ZN5FFLAS5fzeroIN6Givaro15ModularBalancedIdEEEEvRKT_mNS4_11Element_ptrEm
UNKNOWN:_ZN5FFLAS5fzeroIN6Givaro15ModularBalancedIdEEEEvRKT_mmNS4_11Element_ptrEm
UNKNOWN:_ZN5FFLAS5fzeroIN6Givaro15ModularBalancedIfEEEEvRKT_mNS4_11Element_ptrEm
UNKNOWN:_ZN5FFLAS5fzeroIN6Givaro15ModularBalancedIfEEEEvRKT_mmNS4_11Element_ptrEm
UNKNOWN:_ZN5FFLAS5fzeroIN6Givaro15ModularBalancedIlEEEEvRKT_mNS4_11Element_ptrEm
UNKNOWN:_ZN5FFLAS5fzeroIN6Givaro15ModularBalancedIlEEEEvRKT_mmNS4_11Element_ptrEm
UNKNOWN:_ZN5FFLAS5fzeroIN6Givaro7ModularIddvEEEEvRKT_mNS4_11Element_ptrEm
UNKNOWN:_ZN5FFLAS5fzeroIN6Givaro7ModularIddvEEEEvRKT_mmNS4_11Element_ptrEm
UNKNOWN:_ZN5FFLAS5fzeroIN6Givaro7ModularIffvEEEEvRKT_mNS4_11Element_ptrEm
UNKNOWN:_ZN5FFLAS5fzeroIN6Givaro7ModularIffvEEEEvRKT_mmNS4_11Element_ptrEm
UNKNOWN:_ZN5FFLAS5fzeroIN6Givaro7ModularIllvEEEEvRKT_mNS4_11Element_ptrEm
UNKNOWN:_ZN5FFLAS5fzeroIN6Givaro7ModularIllvEEEEvRKT_mmNS4_11Element_ptrEm
UNKNOWN:_ZN5FFLAS6faddinIN6Givaro15ModularBalancedIdEEEEvRKT_mNS4_16ConstElement_ptrEmNS4_11Element_ptrEm
UNKNOWN:_ZN5FFLAS6faddinIN6Givaro15ModularBalancedIdEEEEvRKT_mmNS4_16ConstElement_ptrEmNS4_11Element_ptrEm
UNKNOWN:_ZN5FFLAS6faddinIN6Givaro7ModularIddvEEEEvRKT_mNS4_16ConstElement_ptrEmNS4_11Element_ptrEm
UNKNOWN:_ZN5FFLAS6faddinIN6Givaro7ModularIddvEEEEvRKT_mmNS4_16ConstElement_ptrEmNS4_11Element_ptrEm
UNKNOWN:_ZN5FFLAS6fequalIN6Givaro15ModularBalancedIdEEEEbRKT_mNS4_16ConstElement_ptrEmS7_m
UNKNOWN:_ZN5FFLAS6fequalIN6Givaro15ModularBalancedIdEEEEbRKT_mmNS4_16ConstElement_ptrEmS7_m
UNKNOWN:_ZN5FFLAS6fequalIN6Givaro7ModularIddvEEEEbRKT_mNS4_16ConstElement_ptrEmS7_m
UNKNOWN:_ZN5FFLAS6fequalIN6Givaro7ModularIddvEEEEbRKT_mmNS4_16ConstElement_ptrEmS7_m
UNKNOWN:_ZN5FFLAS6fneginIN6Givaro15ModularBalancedIdEEEEvRKT_mNS4_11Element_ptrEm
UNKNOWN:_ZN5FFLAS6fneginIN6Givaro15ModularBalancedIdEEEEvRKT_mmNS4_11Element_ptrEm
UNKNOWN:_ZN5FFLAS6fneginIN6Givaro7ModularIddvEEEEvRKT_mNS4_11Element_ptrEm
UNKNOWN:_ZN5FFLAS6fneginIN6Givaro7ModularIddvEEEEvRKT_mmNS4_11Element_ptrEm
UNKNOWN:_ZN5FFLAS6fsubinIN6Givaro15ModularBalancedIdEEEEvRKT_mmNS4_16ConstElement_ptrEmNS4_11Element_ptrEm
UNKNOWN:_ZN5FFLAS6fsubinIN6Givaro7ModularIddvEEEEvRKT_mmNS4_16ConstElement_ptrEmNS4_11Element_ptrEm
UNKNOWN:_ZN5FFLAS7fassignIN6Givaro15ModularBalancedIdEEEEvRKT_mmNS4_16ConstElement_ptrEmNS4_11Element_ptrEm
UNKNOWN:_ZN5FFLAS7fassignIN6Givaro15ModularBalancedIfEEEEvRKT_mmNS4_16ConstElement_ptrEmNS4_11Element_ptrEm
UNKNOWN:_ZN5FFLAS7fassignIN6Givaro15ModularBalancedIlEEEEvRKT_mNS4_16ConstElement_ptrEmNS4_11Element_ptrEm
UNKNOWN:_ZN5FFLAS7fassignIN6Givaro15ModularBalancedIlEEEEvRKT_mmNS4_16ConstElement_ptrEmNS4_11Element_ptrEm
UNKNOWN:_ZN5FFLAS7fassignIN6Givaro7ModularIddvEEEEvRKT_mmNS4_16ConstElement_ptrEmNS4_11Element_ptrEm
UNKNOWN:_ZN5FFLAS7fassignIN6Givaro7ModularIffvEEEEvRKT_mmNS4_16ConstElement_ptrEmNS4_11Element_ptrEm
UNKNOWN:_ZN5FFLAS7fassignIN6Givaro7ModularIllvEEEEvRKT_mNS4_16ConstElement_ptrEmNS4_11Element_ptrEm
UNKNOWN:_ZN5FFLAS7fassignIN6Givaro7ModularIllvEEEEvRKT_mmNS4_16ConstElement_ptrEmNS4_11Element_ptrEm
UNKNOWN:_ZN5FFLAS7fiszeroIN6Givaro15ModularBalancedIdEEEEbRKT_mNS4_16ConstElement_ptrEm
UNKNOWN:_ZN5FFLAS7fiszeroIN6Givaro15ModularBalancedIdEEEEbRKT_mmNS4_16ConstElement_ptrEm
UNKNOWN:_ZN5FFLAS7fiszeroIN6Givaro15ModularBalancedIfEEEEbRKT_mmNS4_16ConstElement_ptrEm
UNKNOWN:_ZN5FFLAS7fiszeroIN6Givaro15ModularBalancedIlEEEEbRKT_mmNS4_16ConstElement_ptrEm
UNKNOWN:_ZN5FFLAS7fiszeroIN6Givaro7ModularIddvEEEEbRKT_mNS4_16ConstElement_ptrEm
UNKNOWN:_ZN5FFLAS7fiszeroIN6Givaro7ModularIddvEEEEbRKT_mmNS4_16ConstElement_ptrEm
UNKNOWN:_ZN5FFLAS7fiszeroIN6Givaro7ModularIffvEEEEbRKT_mmNS4_16ConstElement_ptrEm
UNKNOWN:_ZN5FFLAS7fiszeroIN6Givaro7ModularIllvEEEEbRKT_mmNS4_16ConstElement_ptrEm
UNKNOWN:_ZN5FFLAS7freduceIN6Givaro15ModularBalancedIdEEEEvRKT_mNS4_11Element_ptrEm
UNKNOWN:_ZN5FFLAS7freduceIN6Givaro15ModularBalancedIdEEEEvRKT_mNS4_16ConstElement_ptrEmNS4_11Element_ptrEm
UNKNOWN:_ZN5FFLAS7freduceIN6Givaro15ModularBalancedIdEEEEvRKT_mmNS4_11Element_ptrEm
UNKNOWN:_ZN5FFLAS7freduceIN6Givaro15ModularBalancedIdEEEEvRKT_mmNS4_16ConstElement_ptrEmNS4_11Element_ptrEm
UNKNOWN:_ZN5FFLAS7freduceIN6Givaro15ModularBalancedIfEEEEvRKT_mmNS4_11Element_ptrEm
UNKNOWN:_ZN5FFLAS7freduceIN6Givaro7ModularIddvEEEEvRKT_mNS4_11Element_ptrEm
UNKNOWN:_ZN5FFLAS7freduceIN6Givaro7ModularIddvEEEEvRKT_mNS4_16ConstElement_ptrEmNS4_11Element_ptrEm
UNKNOWN:_ZN5FFLAS7freduceIN6Givaro7ModularIddvEEEEvRKT_mmNS4_11Element_ptrEm
UNKNOWN:_ZN5FFLAS7freduceIN6Givaro7ModularIddvEEEEvRKT_mmNS4_16ConstElement_ptrEmNS4_11Element_ptrEm
UNKNOWN:_ZN5FFLAS7freduceIN6Givaro7ModularIffvEEEEvRKT_mmNS4_11Element_ptrEm
UNKNOWN:_ZN5FFLAS7fscalinIN6Givaro15ModularBalancedIdEEEEvRKT_mNS4_7ElementENS4_11Element_ptrEm
UNKNOWN:_ZN5FFLAS7fscalinIN6Givaro15ModularBalancedIdEEEEvRKT_mmNS4_7ElementENS4_11Element_ptrEm
UNKNOWN:_ZN5FFLAS7fscalinIN6Givaro15ModularBalancedIfEEEEvRKT_mNS4_7ElementENS4_11Element_ptrEm
UNKNOWN:_ZN5FFLAS7fscalinIN6Givaro15ModularBalancedIfEEEEvRKT_mmNS4_7ElementENS4_11Element_ptrEm
UNKNOWN:_ZN5FFLAS7fscalinIN6Givaro15ModularBalancedIlEEEEvRKT_mNS4_7ElementENS4_11Element_ptrEm
UNKNOWN:_ZN5FFLAS7fscalinIN6Givaro15ModularBalancedIlEEEEvRKT_mmNS4_7ElementENS4_11Element_ptrEm
UNKNOWN:_ZN5FFLAS7fscalinIN6Givaro7ModularIddvEEEEvRKT_mNS4_7ElementENS4_11Element_ptrEm
UNKNOWN:_ZN5FFLAS7fscalinIN6Givaro7ModularIddvEEEEvRKT_mmNS4_7ElementENS4_11Element_ptrEm
UNKNOWN:_ZN5FFLAS7fscalinIN6Givaro7ModularIffvEEEEvRKT_mNS4_7ElementENS4_11Element_ptrEm
UNKNOWN:_ZN5FFLAS7fscalinIN6Givaro7ModularIffvEEEEvRKT_mmNS4_7ElementENS4_11Element_ptrEm
UNKNOWN:_ZN5FFLAS7fscalinIN6Givaro7ModularIllvEEEEvRKT_mNS4_7ElementENS4_11Element_ptrEm
UNKNOWN:_ZN5FFLAS7fscalinIN6Givaro7ModularIllvEEEEvRKT_mmNS4_7ElementENS4_11Element_ptrEm
UNKNOWN:_ZN5FFLAS7fsquareIN6Givaro15ModularBalancedIlEEEENT_11Element_ptrERKS4_NS_15FFLAS_TRANSPOSEEmNS4_7ElementENS4_16ConstElement_ptrEmS9_S5_m
UNKNOWN:_ZN5FFLAS7fsquareIN6Givaro7ModularIllvEEEENT_11Element_ptrERKS4_NS_15FFLAS_TRANSPOSEEmNS4_7ElementENS4_16ConstElement_ptrEmS9_S5_m
UNKNOWN:_ZN5FFLAS9fidentityIN6Givaro15ModularBalancedIdEEEEvRKT_mmNS4_11Element_ptrEm
UNKNOWN:_ZN5FFLAS9fidentityIN6Givaro15ModularBalancedIdEEEEvRKT_mmNS4_11Element_ptrEmRKNS4_7ElementE
UNKNOWN:_ZN5FFLAS9fidentityIN6Givaro15ModularBalancedIfEEEEvRKT_mmNS4_11Element_ptrEm
UNKNOWN:_ZN5FFLAS9fidentityIN6Givaro15ModularBalancedIlEEEEvRKT_mmNS4_11Element_ptrEm
UNKNOWN:_ZN5FFLAS9fidentityIN6Givaro7ModularIddvEEEEvRKT_mmNS4_11Element_ptrEm
UNKNOWN:_ZN5FFLAS9fidentityIN6Givaro7ModularIddvEEEEvRKT_mmNS4_11Element_ptrEmRKNS4_7ElementE
UNKNOWN:_ZN5FFLAS9fidentityIN6Givaro7ModularIffvEEEEvRKT_mmNS4_11Element_ptrEm
UNKNOWN:_ZN5FFLAS9fidentityIN6Givaro7ModularIllvEEEEvRKT_mmNS4_11Element_ptrEm
UNKNOWN:_ZN6FFPACK10IsSingularIN6Givaro15ModularBalancedIdEEEEbRKT_mmNS4_11Element_ptrEm
UNKNOWN:_ZN6FFPACK10IsSingularIN6Givaro7ModularIddvEEEEbRKT_mmNS4_11Element_ptrEm
UNKNOWN:_ZN6FFPACK10KrylovElimIN6Givaro15ModularBalancedIdEEEEmRKT_mmNS4_11Element_ptrEmPmS8_mS8_S8_mm
UNKNOWN:_ZN6FFPACK10KrylovElimIN6Givaro7ModularIddvEEEEmRKT_mmNS4_11Element_ptrEmPmS8_mS8_S8_mm
UNKNOWN:_ZN6FFPACK10trinv_leftIN6Givaro15ModularBalancedIdEEEEvRKT_mNS4_16ConstElement_ptrEmNS4_11Element_ptrEm
UNKNOWN:_ZN6FFPACK10trinv_leftIN6Givaro7ModularIddvEEEEvRKT_mNS4_16ConstElement_ptrEmNS4_11Element_ptrEm
UNKNOWN:_ZN6FFPACK13getTriangularIN6Givaro15ModularBalancedIdEEEEvRKT_N5FFLAS10FFLAS_UPLOENS7_10FFLAS_DIAGEmmmNS4_11Element_ptrEm
UNKNOWN:_ZN6FFPACK13getTriangularIN6Givaro15ModularBalancedIdEEEEvRKT_N5FFLAS10FFLAS_UPLOENS7_10FFLAS_DIAGEmmmNS4_16ConstElement_ptrEmNS4_11Element_ptrEmb
UNKNOWN:_ZN6FFPACK13getTriangularIN6Givaro7ModularIddvEEEEvRKT_N5FFLAS10FFLAS_UPLOENS7_10FFLAS_DIAGEmmmNS4_11Element_ptrEm
UNKNOWN:_ZN6FFPACK13getTriangularIN6Givaro7ModularIddvEEEEvRKT_N5FFLAS10FFLAS_UPLOENS7_10FFLAS_DIAGEmmmNS4_16ConstElement_ptrEmNS4_11Element_ptrEmb
UNKNOWN:_ZN6FFPACK14NullSpaceBasisIN6Givaro15ModularBalancedIdEEEEmRKT_N5FFLAS10FFLAS_SIDEEmmNS4_11Element_ptrEmRS9_RmSB_
UNKNOWN:_ZN6FFPACK14NullSpaceBasisIN6Givaro7ModularIddvEEEEmRKT_N5FFLAS10FFLAS_SIDEEmmNS4_11Element_ptrEmRS9_RmSB_
UNKNOWN:_ZN6FFPACK14RowEchelonFormIN6Givaro15ModularBalancedIdEEEEmRKT_mmNS4_11Element_ptrEmPmS8_bNS_13FFPACK_LU_TAGE
UNKNOWN:_ZN6FFPACK14RowEchelonFormIN6Givaro15ModularBalancedIfEEEEmRKT_mmNS4_11Element_ptrEmPmS8_bNS_13FFPACK_LU_TAGE
UNKNOWN:_ZN6FFPACK14RowEchelonFormIN6Givaro7ModularIddvEEEEmRKT_mmNS4_11Element_ptrEmPmS8_bNS_13FFPACK_LU_TAGE
UNKNOWN:_ZN6FFPACK14RowEchelonFormIN6Givaro7ModularIffvEEEEmRKT_mmNS4_11Element_ptrEmPmS8_bNS_13FFPACK_LU_TAGE
UNKNOWN:_ZN6FFPACK14RowRankProfileIN6Givaro15ModularBalancedIdEEEEmRKT_mmNS4_11Element_ptrEmRPmNS_13FFPACK_LU_TAGE
UNKNOWN:_ZN6FFPACK14RowRankProfileIN6Givaro7ModularIddvEEEEmRKT_mmNS4_11Element_ptrEmRPmNS_13FFPACK_LU_TAGE
UNKNOWN:_ZN6FFPACK14getEchelonFormIN6Givaro15ModularBalancedIdEEEEvRKT_N5FFLAS10FFLAS_UPLOENS7_10FFLAS_DIAGEmmmPKmNS4_11Element_ptrEmNS_13FFPACK_LU_TAGE
UNKNOWN:_ZN6FFPACK14getEchelonFormIN6Givaro15ModularBalancedIdEEEEvRKT_N5FFLAS10FFLAS_UPLOENS7_10FFLAS_DIAGEmmmPKmNS4_16ConstElement_ptrEmNS4_11Element_ptrEmbNS_13FFPACK_LU_TAGE
UNKNOWN:_ZN6FFPACK14getEchelonFormIN6Givaro7ModularIddvEEEEvRKT_N5FFLAS10FFLAS_UPLOENS7_10FFLAS_DIAGEmmmPKmNS4_11Element_ptrEmNS_13FFPACK_LU_TAGE
UNKNOWN:_ZN6FFPACK14getEchelonFormIN6Givaro7ModularIddvEEEEvRKT_N5FFLAS10FFLAS_UPLOENS7_10FFLAS_DIAGEmmmPKmNS4_16ConstElement_ptrEmNS4_11Element_ptrEmbNS_13FFPACK_LU_TAGE
UNKNOWN:_ZN6FFPACK15SpecRankProfileIN6Givaro15ModularBalancedIdEEEEmRKT_mmNS4_11Element_ptrEmmPm
UNKNOWN:_ZN6FFPACK15SpecRankProfileIN6Givaro7ModularIddvEEEEmRKT_mmNS4_11Element_ptrEmmPm
UNKNOWN:_ZN6FFPACK16cyclic_shift_colIN6Givaro15ModularBalancedIdEEEEvRKT_NS4_11Element_ptrEmmm
UNKNOWN:_ZN6FFPACK16cyclic_shift_colIN6Givaro15ModularBalancedIfEEEEvRKT_NS4_11Element_ptrEmmm
UNKNOWN:_ZN6FFPACK16cyclic_shift_colIN6Givaro7ModularIddvEEEEvRKT_NS4_11Element_ptrEmmm
UNKNOWN:_ZN6FFPACK16cyclic_shift_colIN6Givaro7ModularIffvEEEEvRKT_NS4_11Element_ptrEmmm
UNKNOWN:_ZN6FFPACK16cyclic_shift_rowIN6Givaro15ModularBalancedIdEEEEvRKT_NS4_11Element_ptrEmmm
UNKNOWN:_ZN6FFPACK16cyclic_shift_rowIN6Givaro15ModularBalancedIfEEEEvRKT_NS4_11Element_ptrEmmm
UNKNOWN:_ZN6FFPACK16cyclic_shift_rowIN6Givaro7ModularIddvEEEEvRKT_NS4_11Element_ptrEmmm
UNKNOWN:_ZN6FFPACK16cyclic_shift_rowIN6Givaro7ModularIffvEEEEvRKT_NS4_11Element_ptrEmmm
UNKNOWN:_ZN6FFPACK17ColumnEchelonFormIN6Givaro15ModularBalancedIdEEEEmRKT_mmNS4_11Element_ptrEmPmS8_bNS_13FFPACK_LU_TAGE
UNKNOWN:_ZN6FFPACK17ColumnEchelonFormIN6Givaro15ModularBalancedIfEEEEmRKT_mmNS4_11Element_ptrEmPmS8_bNS_13FFPACK_LU_TAGE
UNKNOWN:_ZN6FFPACK17ColumnEchelonFormIN6Givaro7ModularIddvEEEEmRKT_mmNS4_11Element_ptrEmPmS8_bNS_13FFPACK_LU_TAGE
UNKNOWN:_ZN6FFPACK17ColumnEchelonFormIN6Givaro7ModularIffvEEEEmRKT_mmNS4_11Element_ptrEmPmS8_bNS_13FFPACK_LU_TAGE
UNKNOWN:_ZN6FFPACK17ColumnRankProfileIN6Givaro15ModularBalancedIdEEEEmRKT_mmNS4_11Element_ptrEmRPmNS_13FFPACK_LU_TAGE
UNKNOWN:_ZN6FFPACK17ColumnRankProfileIN6Givaro7ModularIddvEEEEmRKT_mmNS4_11Element_ptrEmRPmNS_13FFPACK_LU_TAGE
UNKNOWN:_ZN6FFPACK19getEchelonTransformIN6Givaro15ModularBalancedIdEEEEvRKT_N5FFLAS10FFLAS_UPLOENS7_10FFLAS_DIAGEmmmPKmSB_NS4_16ConstElement_ptrEmNS4_11Element_ptrEmNS_13FFPACK_LU_TAGE
UNKNOWN:_ZN6FFPACK19getEchelonTransformIN6Givaro7ModularIddvEEEEvRKT_N5FFLAS10FFLAS_UPLOENS7_10FFLAS_DIAGEmmmPKmSB_NS4_16ConstElement_ptrEmNS4_11Element_ptrEmNS_13FFPACK_LU_TAGE
UNKNOWN:_ZN6FFPACK21RandomNullSpaceVectorIN6Givaro15ModularBalancedIdEEEEvRKT_N5FFLAS10FFLAS_SIDEEmmNS4_11Element_ptrEmS9_m
UNKNOWN:_ZN6FFPACK21RandomNullSpaceVectorIN6Givaro7ModularIddvEEEEvRKT_N5FFLAS10FFLAS_SIDEEmmNS4_11Element_ptrEmS9_m
UNKNOWN:_ZN6FFPACK21ReducedRowEchelonFormIN6Givaro15ModularBalancedIdEEEEmRKT_mmNS4_11Element_ptrEmPmS8_bNS_13FFPACK_LU_TAGE
UNKNOWN:_ZN6FFPACK21ReducedRowEchelonFormIN6Givaro15ModularBalancedIfEEEEmRKT_mmNS4_11Element_ptrEmPmS8_bNS_13FFPACK_LU_TAGE
UNKNOWN:_ZN6FFPACK21ReducedRowEchelonFormIN6Givaro7ModularIddvEEEEmRKT_mmNS4_11Element_ptrEmPmS8_bNS_13FFPACK_LU_TAGE
UNKNOWN:_ZN6FFPACK21ReducedRowEchelonFormIN6Givaro7ModularIffvEEEEmRKT_mmNS4_11Element_ptrEmPmS8_bNS_13FFPACK_LU_TAGE
UNKNOWN:_ZN6FFPACK21getReducedEchelonFormIN6Givaro15ModularBalancedIdEEEEvRKT_N5FFLAS10FFLAS_UPLOEmmmPKmNS4_11Element_ptrEmNS_13FFPACK_LU_TAGE
UNKNOWN:_ZN6FFPACK21getReducedEchelonFormIN6Givaro15ModularBalancedIdEEEEvRKT_N5FFLAS10FFLAS_UPLOEmmmPKmNS4_16ConstElement_ptrEmNS4_11Element_ptrEmbNS_13FFPACK_LU_TAGE
UNKNOWN:_ZN6FFPACK21getReducedEchelonFormIN6Givaro7ModularIddvEEEEvRKT_N5FFLAS10FFLAS_UPLOEmmmPKmNS4_11Element_ptrEmNS_13FFPACK_LU_TAGE
UNKNOWN:_ZN6FFPACK21getReducedEchelonFormIN6Givaro7ModularIddvEEEEvRKT_N5FFLAS10FFLAS_UPLOEmmmPKmNS4_16ConstElement_ptrEmNS4_11Element_ptrEmbNS_13FFPACK_LU_TAGE
UNKNOWN:_ZN6FFPACK23ColRankProfileSubmatrixIN6Givaro15ModularBalancedIdEEEEmRKT_mmNS4_11Element_ptrEmRS7_Rm
UNKNOWN:_ZN6FFPACK23ColRankProfileSubmatrixIN6Givaro7ModularIddvEEEEmRKT_mmNS4_11Element_ptrEmRS7_Rm
UNKNOWN:_ZN6FFPACK23RowRankProfileSubmatrixIN6Givaro15ModularBalancedIdEEEEmRKT_mmNS4_11Element_ptrEmRS7_Rm
UNKNOWN:_ZN6FFPACK23RowRankProfileSubmatrixIN6Givaro7ModularIddvEEEEmRKT_mmNS4_11Element_ptrEmRS7_Rm
UNKNOWN:_ZN6FFPACK24ReducedColumnEchelonFormIN6Givaro15ModularBalancedIdEEEEmRKT_mmNS4_11Element_ptrEmPmS8_bNS_13FFPACK_LU_TAGE
UNKNOWN:_ZN6FFPACK24ReducedColumnEchelonFormIN6Givaro15ModularBalancedIfEEEEmRKT_mmNS4_11Element_ptrEmPmS8_bNS_13FFPACK_LU_TAGE
UNKNOWN:_ZN6FFPACK24ReducedColumnEchelonFormIN6Givaro7ModularIddvEEEEmRKT_mmNS4_11Element_ptrEmPmS8_bNS_13FFPACK_LU_TAGE
UNKNOWN:_ZN6FFPACK24ReducedColumnEchelonFormIN6Givaro7ModularIffvEEEEmRKT_mmNS4_11Element_ptrEmPmS8_bNS_13FFPACK_LU_TAGE
UNKNOWN:_ZN6FFPACK26getReducedEchelonTransformIN6Givaro15ModularBalancedIdEEEEvRKT_N5FFLAS10FFLAS_UPLOEmmmPKmSA_NS4_16ConstElement_ptrEmNS4_11Element_ptrEmNS_13FFPACK_LU_TAGE
UNKNOWN:_ZN6FFPACK26getReducedEchelonTransformIN6Givaro7ModularIddvEEEEvRKT_N5FFLAS10FFLAS_UPLOEmmmPKmSA_NS4_16ConstElement_ptrEmNS4_11Element_ptrEmNS_13FFPACK_LU_TAGE
UNKNOWN:_ZN6FFPACK30ColRankProfileSubmatrixIndicesIN6Givaro15ModularBalancedIdEEEEmRKT_mmNS4_11Element_ptrEmRPmS9_Rm
UNKNOWN:_ZN6FFPACK30ColRankProfileSubmatrixIndicesIN6Givaro7ModularIddvEEEEmRKT_mmNS4_11Element_ptrEmRPmS9_Rm
UNKNOWN:_ZN6FFPACK30RowRankProfileSubmatrixIndicesIN6Givaro15ModularBalancedIdEEEEmRKT_mmNS4_11Element_ptrEmRPmS9_Rm
UNKNOWN:_ZN6FFPACK30RowRankProfileSubmatrixIndicesIN6Givaro7ModularIddvEEEEmRKT_mmNS4_11Element_ptrEmRPmS9_Rm
UNKNOWN:_ZN6FFPACK3DetIN6Givaro15ModularBalancedIdEEEERNT_7ElementERKS4_S6_mNS4_11Element_ptrEmPmSA_
UNKNOWN:_ZN6FFPACK3DetIN6Givaro7ModularIddvEEEERNT_7ElementERKS4_S6_mNS4_11Element_ptrEmPmSA_
UNKNOWN:_ZN6FFPACK4PLUQIN6Givaro15ModularBalancedIdEEEEmRKT_N5FFLAS10FFLAS_DIAGEmmNS4_11Element_ptrEmPmSA_
UNKNOWN:_ZN6FFPACK4PLUQIN6Givaro7ModularIddvEEEEmRKT_N5FFLAS10FFLAS_DIAGEmmNS4_11Element_ptrEmPmSA_
UNKNOWN:_ZN6FFPACK4RankIN6Givaro15ModularBalancedIdEEEEmRKT_mmNS4_11Element_ptrEm
UNKNOWN:_ZN6FFPACK4RankIN6Givaro7ModularIddvEEEEmRKT_mmNS4_11Element_ptrEm
UNKNOWN:_ZN6FFPACK5SolveIN6Givaro15ModularBalancedIdEEEENT_11Element_ptrERKS4_mS5_mS5_iNS4_16ConstElement_ptrEi
UNKNOWN:_ZN6FFPACK5SolveIN6Givaro7ModularIddvEEEENT_11Element_ptrERKS4_mS5_mS5_iNS4_16ConstElement_ptrEi
UNKNOWN:_ZN6FFPACK5fgesvIN6Givaro15ModularBalancedIdEEEEmRKT_N5FFLAS10FFLAS_SIDEEmmNS4_11Element_ptrEmS9_mPi
UNKNOWN:_ZN6FFPACK5fgesvIN6Givaro15ModularBalancedIdEEEEmRKT_N5FFLAS10FFLAS_SIDEEmmmNS4_11Element_ptrEmS9_mNS4_16ConstElement_ptrEmPi
UNKNOWN:_ZN6FFPACK5fgesvIN6Givaro7ModularIddvEEEEmRKT_N5FFLAS10FFLAS_SIDEEmmNS4_11Element_ptrEmS9_mPi
UNKNOWN:_ZN6FFPACK5fgesvIN6Givaro7ModularIddvEEEEmRKT_N5FFLAS10FFLAS_SIDEEmmmNS4_11Element_ptrEmS9_mNS4_16ConstElement_ptrEmPi
UNKNOWN:_ZN6FFPACK6InvertIN6Givaro15ModularBalancedIdEEEENT_11Element_ptrERKS4_mNS4_16ConstElement_ptrEmS5_mRi
UNKNOWN:_ZN6FFPACK6InvertIN6Givaro15ModularBalancedIdEEEENT_11Element_ptrERKS4_mS5_mRi
UNKNOWN:_ZN6FFPACK6InvertIN6Givaro7ModularIddvEEEENT_11Element_ptrERKS4_mNS4_16ConstElement_ptrEmS5_mRi
UNKNOWN:_ZN6FFPACK6InvertIN6Givaro7ModularIddvEEEENT_11Element_ptrERKS4_mS5_mRi
UNKNOWN:_ZN6FFPACK6applyPIN6Givaro15ModularBalancedIdEEEEvRKT_N5FFLAS10FFLAS_SIDEENS7_15FFLAS_TRANSPOSEEmmmNS4_11Element_ptrEmPKm
UNKNOWN:_ZN6FFPACK6applyPIN6Givaro15ModularBalancedIfEEEEvRKT_N5FFLAS10FFLAS_SIDEENS7_15FFLAS_TRANSPOSEEmmmNS4_11Element_ptrEmPKm
UNKNOWN:_ZN6FFPACK6applyPIN6Givaro7ModularIddvEEEEvRKT_N5FFLAS10FFLAS_SIDEENS7_15FFLAS_TRANSPOSEEmmmNS4_11Element_ptrEmPKm
UNKNOWN:_ZN6FFPACK6applyPIN6Givaro7ModularIffvEEEEvRKT_N5FFLAS10FFLAS_SIDEENS7_15FFLAS_TRANSPOSEEmmmNS4_11Element_ptrEmPKm
UNKNOWN:_ZN6FFPACK6fgetrsIN6Givaro15ModularBalancedIdEEEENT_11Element_ptrERKS4_N5FFLAS10FFLAS_SIDEEmmmmS5_mPKmSB_S5_mNS4_16ConstElement_ptrEmPi
UNKNOWN:_ZN6FFPACK6fgetrsIN6Givaro15ModularBalancedIdEEEEvRKT_N5FFLAS10FFLAS_SIDEEmmmNS4_11Element_ptrEmPKmSB_S9_mPi
UNKNOWN:_ZN6FFPACK6fgetrsIN6Givaro7ModularIddvEEEENT_11Element_ptrERKS4_N5FFLAS10FFLAS_SIDEEmmmmS5_mPKmSB_S5_mNS4_16ConstElement_ptrEmPi
UNKNOWN:_ZN6FFPACK6fgetrsIN6Givaro7ModularIddvEEEEvRKT_N5FFLAS10FFLAS_SIDEEmmmNS4_11Element_ptrEmPKmSB_S9_mPi
UNKNOWN:_ZN6FFPACK6ftrtriIN6Givaro15ModularBalancedIdEEEEvRKT_N5FFLAS10FFLAS_UPLOENS7_10FFLAS_DIAGEmNS4_11Element_ptrEmm
UNKNOWN:_ZN6FFPACK6ftrtriIN6Givaro15ModularBalancedIfEEEEvRKT_N5FFLAS10FFLAS_UPLOENS7_10FFLAS_DIAGEmNS4_11Element_ptrEmm
UNKNOWN:_ZN6FFPACK6ftrtriIN6Givaro7ModularIddvEEEEvRKT_N5FFLAS10FFLAS_UPLOENS7_10FFLAS_DIAGEmNS4_11Element_ptrEmm
UNKNOWN:_ZN6FFPACK6ftrtriIN6Givaro7ModularIffvEEEEvRKT_N5FFLAS10FFLAS_UPLOENS7_10FFLAS_DIAGEmNS4_11Element_ptrEmm
UNKNOWN:_ZN6FFPACK6ftrtrmIN6Givaro15ModularBalancedIdEEEEvRKT_N5FFLAS10FFLAS_SIDEENS7_10FFLAS_DIAGEmNS4_11Element_ptrEm
UNKNOWN:_ZN6FFPACK6ftrtrmIN6Givaro15ModularBalancedIfEEEEvRKT_N5FFLAS10FFLAS_SIDEENS7_10FFLAS_DIAGEmNS4_11Element_ptrEm
UNKNOWN:_ZN6FFPACK6ftrtrmIN6Givaro7ModularIddvEEEEvRKT_N5FFLAS10FFLAS_SIDEENS7_10FFLAS_DIAGEmNS4_11Element_ptrEm
UNKNOWN:_ZN6FFPACK6ftrtrmIN6Givaro7ModularIffvEEEEvRKT_N5FFLAS10FFLAS_SIDEENS7_10FFLAS_DIAGEmNS4_11Element_ptrEm
UNKNOWN:_ZN6FFPACK7Invert2IN6Givaro15ModularBalancedIdEEEENT_11Element_ptrERKS4_mS5_mS5_mRi
UNKNOWN:_ZN6FFPACK7Invert2IN6Givaro7ModularIddvEEEENT_11Element_ptrERKS4_mS5_mS5_mRi
UNKNOWN:_ZN6FFPACK7solveLBIN6Givaro15ModularBalancedIdEEEEvRKT_N5FFLAS10FFLAS_SIDEEmmmNS4_11Element_ptrEmPKmS9_m
UNKNOWN:_ZN6FFPACK7solveLBIN6Givaro7ModularIddvEEEEvRKT_N5FFLAS10FFLAS_SIDEEmmmNS4_11Element_ptrEmPKmS9_m
UNKNOWN:_ZN6FFPACK8LUdivineIN6Givaro15ModularBalancedIdEEEEmRKT_N5FFLAS10FFLAS_DIAGENS7_15FFLAS_TRANSPOSEEmmNS4_11Element_ptrEmPmSB_NS_13FFPACK_LU_TAGEm
UNKNOWN:_ZN6FFPACK8LUdivineIN6Givaro15ModularBalancedIfEEEEmRKT_N5FFLAS10FFLAS_DIAGENS7_15FFLAS_TRANSPOSEEmmNS4_11Element_ptrEmPmSB_NS_13FFPACK_LU_TAGEm
UNKNOWN:_ZN6FFPACK8LUdivineIN6Givaro7ModularIddvEEEEmRKT_N5FFLAS10FFLAS_DIAGENS7_15FFLAS_TRANSPOSEEmmNS4_11Element_ptrEmPmSB_NS_13FFPACK_LU_TAGEm
UNKNOWN:_ZN6FFPACK8LUdivineIN6Givaro7ModularIffvEEEEmRKT_N5FFLAS10FFLAS_DIAGENS7_15FFLAS_TRANSPOSEEmmNS4_11Element_ptrEmPmSB_NS_13FFPACK_LU_TAGEm
UNKNOWN:_ZN6FFPACK8solveLB2IN6Givaro15ModularBalancedIdEEEEvRKT_N5FFLAS10FFLAS_SIDEEmmmNS4_11Element_ptrEmPKmS9_m
UNKNOWN:_ZN6FFPACK8solveLB2IN6Givaro7ModularIddvEEEEvRKT_N5FFLAS10FFLAS_SIDEEmmmNS4_11Element_ptrEmPKmS9_m
libc.so.6:__stack_chk_fail
libc.so.6:exit
libc.so.6:free
libc.so.6:memcpy
libc.so.6:memmove
libc.so.6:memset
libc.so.6:posix_memalign
libc.so.6:strlen
libgcc_s.so.1:_Unwind_Resume
libgivaro.so.9:_ZN6Givaro6Degree8deginftyE
libgivaro.so.9:_ZN6Givaro7IntegerC1Ed
libgivaro.so.9:_ZN6Givaro7IntegerC1Ei
libgivaro.so.9:_ZN6Givaro7IntegerC1Ej
libgivaro.so.9:_ZN6Givaro7IntegerC1El
libgivaro.so.9:_ZN6Givaro7IntegerC1Em
libgivaro.so.9:_ZN6Givaro7IntegerD1Ev
libgivaro.so.9:_ZN6Givaro7IntegeraSERKS0_
libgivaro.so.9:_ZN6Givaro9BaseTimer4seedEv
libgivaro.so.9:_ZNK6Givaro7IntegercvdEv
libgivaro.so.9:_ZNK6Givaro7IntegereqEi
libgivaro.so.9:_ZNK6Givaro7IntegerltEm
libgivaro.so.9:_ZNK6Givaro7IntegermiEl
libgivaro.so.9:_ZNK6Givaro7IntegerrmEm
libgivaro.so.9:_ZNK6Givaro7IntegerrsEi
libm.so.6:floor
libm.so.6:fmod
libm.so.6:fmodf
libm.so.6:sqrt
libopenblas.so.0:cblas_daxpy
libopenblas.so.0:cblas_dcopy
libopenblas.so.0:cblas_ddot
libopenblas.so.0:cblas_dgemm
libopenblas.so.0:cblas_dgemv
libopenblas.so.0:cblas_dger
libopenblas.so.0:cblas_dscal
libopenblas.so.0:cblas_dtrmm
libopenblas.so.0:cblas_dtrsm
libopenblas.so.0:cblas_saxpy
libopenblas.so.0:cblas_scopy
libopenblas.so.0:cblas_sdot
libopenblas.so.0:cblas_sgemm
libopenblas.so.0:cblas_sgemv
libopenblas.so.0:cblas_sger
libopenblas.so.0:cblas_sscal
libopenblas.so.0:cblas_strmm
libopenblas.so.0:cblas_strsm
libopenblas.so.0:openblas_set_num_threads
libstdc++.so.6:_ZNKSt5ctypeIcE13_M_widen_initEv
libstdc++.so.6:_ZNSi10_M_extractIdEERSiRT_
libstdc++.so.6:_ZNSi10_M_extractIfEERSiRT_
libstdc++.so.6:_ZNSi10_M_extractIlEERSiRT_
libstdc++.so.6:_ZNSi10_M_extractImEERSiRT_
libstdc++.so.6:_ZNSo3putEc
libstdc++.so.6:_ZNSo5flushEv
libstdc++.so.6:_ZNSo9_M_insertIdEERSoT_
libstdc++.so.6:_ZNSo9_M_insertIlEERSoT_
libstdc++.so.6:_ZNSo9_M_insertImEERSoT_
libstdc++.so.6:_ZNSolsEi
libstdc++.so.6:_ZNSt7__cxx1112basic_stringIcSt11char_traitsIcESaIcEE10_M_disposeEv
libstdc++.so.6:_ZNSt7__cxx1112basic_stringIcSt11char_traitsIcESaIcEE10_M_replaceEmmPKcm
libstdc++.so.6:_ZNSt7__cxx1112basic_stringIcSt11char_traitsIcESaIcEE12_M_constructEmc
libstdc++.so.6:_ZNSt7__cxx1112basic_stringIcSt11char_traitsIcESaIcEE14_M_replace_auxEmmmc
libstdc++.so.6:_ZNSt7__cxx1112basic_stringIcSt11char_traitsIcESaIcEE9_M_appendEPKcm
libstdc++.so.6:_ZNSt7__cxx1112basic_stringIcSt11char_traitsIcESaIcEE9_M_createERmm
libstdc++.so.6:_ZNSt8__detail15_List_node_base11_M_transferEPS0_S1_
libstdc++.so.6:_ZNSt8__detail15_List_node_base7_M_hookEPS0_
libstdc++.so.6:_ZNSt9basic_iosIcSt11char_traitsIcEE5clearESt12_Ios_Iostate
libstdc++.so.6:_ZSt16__ostream_insertIcSt11char_traitsIcEERSt13basic_ostreamIT_T0_ES6_PKS3_l
libstdc++.so.6:_ZSt16__throw_bad_castv
libstdc++.so.6:_ZSt17__throw_bad_allocv
libstdc++.so.6:_ZSt20__throw_length_errorPKc
libstdc++.so.6:_ZSt21ios_base_library_initv
libstdc++.so.6:_ZSt28__throw_bad_array_new_lengthv
libstdc++.so.6:_ZSt4cerr
libstdc++.so.6:_ZSt4cout
libstdc++.so.6:_ZTVN10__cxxabiv117__class_type_infoE
libstdc++.so.6:_ZTVN10__cxxabiv120__si_class_type_infoE
libstdc++.so.6:_ZdaPv
libstdc++.so.6:_ZdlPvm
libstdc++.so.6:_Znam
libstdc++.so.6:_Znwm
libstdc++.so.6:__cxa_allocate_exception
libstdc++.so.6:__cxa_begin_catch
libstdc++.so.6:__cxa_end_catch
libstdc++.so.6:__cxa_guard_acquire
libstdc++.so.6:__cxa_guard_release
libstdc++.so.6:__cxa_throw
libstdc++.so.6:__cxa_throw_bad_array_new_length
libstdc++.so.6:__gxx_personality_v0
