nextpnr-xilinx:_ZN5boost6system6detail18generic_cat_holderIvE8instanceE
nextpnr-xilinx:_ZTIN5boost10wrapexceptINS_15program_options16validation_errorEEE
nextpnr-xilinx:_ZTIN5boost10wrapexceptINS_16bad_lexical_castEEE
nextpnr-xilinx:_ZTIN5boost10wrapexceptINS_17bad_function_callEEE
nextpnr-xilinx:_ZTIN5boost10wrapexceptINS_21thread_resource_errorEEE
nextpnr-xilinx:_ZTIN5boost10wrapexceptINSt8ios_base7failureB5cxx11EEE
nextpnr-xilinx:_ZTIN5boost15program_options16validation_errorE
nextpnr-xilinx:_ZTIN5boost15program_options20invalid_option_valueE
nextpnr-xilinx:_ZTIN5boost16bad_lexical_castE
nextpnr-xilinx:_ZTIN5boost16exception_detail10clone_baseE
nextpnr-xilinx:_ZTIN5boost16thread_exceptionE
nextpnr-xilinx:_ZTIN5boost17bad_function_callE
nextpnr-xilinx:_ZTIN5boost21thread_resource_errorE
nextpnr-xilinx:_ZTIN5boost3any11placeholderE
nextpnr-xilinx:_ZTIN5boost4anys6detail11placeholderE
nextpnr-xilinx:_ZTIN5boost6detail15sp_counted_baseE
nextpnr-xilinx:_ZTIN5boost6system12system_errorE
nextpnr-xilinx:_ZTIN5boost6system14error_categoryE
nextpnr-xilinx:_ZTIN5boost6system6detail21system_error_categoryE
nextpnr-xilinx:_ZTIN5boost6system6detail22generic_error_categoryE
nextpnr-xilinx:_ZTIN5boost6system6detail22interop_error_categoryE
nextpnr-xilinx:_ZTIN5boost9exceptionE
nextpnr-xilinx:_ZTINSt7__cxx1112basic_stringIcSt11char_traitsIcESaIcEEE
nextpnr-xilinx:_ZTSN5boost10wrapexceptINS_15program_options16validation_errorEEE
nextpnr-xilinx:_ZTSN5boost10wrapexceptINS_16bad_lexical_castEEE
nextpnr-xilinx:_ZTSN5boost10wrapexceptINS_17bad_function_callEEE
nextpnr-xilinx:_ZTSN5boost10wrapexceptINS_21thread_resource_errorEEE
nextpnr-xilinx:_ZTSN5boost10wrapexceptINSt8ios_base7failureB5cxx11EEE
nextpnr-xilinx:_ZTSN5boost15program_options16validation_errorE
nextpnr-xilinx:_ZTSN5boost15program_options20invalid_option_valueE
nextpnr-xilinx:_ZTSN5boost15program_options5errorE
nextpnr-xilinx:_ZTSN5boost16bad_lexical_castE
nextpnr-xilinx:_ZTSN5boost16exception_detail10clone_baseE
nextpnr-xilinx:_ZTSN5boost16thread_exceptionE
nextpnr-xilinx:_ZTSN5boost17bad_function_callE
nextpnr-xilinx:_ZTSN5boost21thread_resource_errorE
nextpnr-xilinx:_ZTSN5boost3any11placeholderE
nextpnr-xilinx:_ZTSN5boost4anys6detail11placeholderE
nextpnr-xilinx:_ZTSN5boost6detail15sp_counted_baseE
nextpnr-xilinx:_ZTSN5boost6system12system_errorE
nextpnr-xilinx:_ZTSN5boost6system14error_categoryE
nextpnr-xilinx:_ZTSN5boost6system6detail21system_error_categoryE
nextpnr-xilinx:_ZTSN5boost6system6detail22generic_error_categoryE
nextpnr-xilinx:_ZTSN5boost6system6detail22interop_error_categoryE
nextpnr-xilinx:_ZTSN5boost9exceptionE
nextpnr-xilinx:_ZTSNSt7__cxx1112basic_stringIcSt11char_traitsIcESaIcEEE
nextpnr-xilinx:_ZTVN5boost6system14error_categoryE
nextpnr-xilinx:_ZTVN5boost6system6detail21system_error_categoryE
nextpnr-xilinx:_ZTVN5boost6system6detail22generic_error_categoryE
nextpnr-xilinx:_ZTVN5boost6system6detail22interop_error_categoryE
