libntl.so.44:_Z10_ntl_g2logP17_ntl_gbigint_body
libntl.so.44:_Z10_ntl_gcopyP17_ntl_gbigint_bodyPS0_
libntl.so.44:_Z10_ntl_gdoubP17_ntl_gbigint_body
libntl.so.44:_Z10_ntl_gexpsllPP17_ntl_gbigint_body
libntl.so.44:_Z10_ntl_gfreeP17_ntl_gbigint_body
libntl.so.44:_Z10_ntl_gsaddP17_ntl_gbigint_bodylPS0_
libntl.so.44:_Z10_ntl_gsdivP17_ntl_gbigint_bodylPS0_
libntl.so.44:_Z10_ntl_gsmodP17_ntl_gbigint_bodyl
libntl.so.44:_Z10_ntl_gsmulP17_ntl_gbigint_bodylPS0_
libntl.so.44:_Z10_ntl_gsqrtP17_ntl_gbigint_bodyPS0_
libntl.so.44:_Z10_ntl_gssubP17_ntl_gbigint_bodylPS0_
libntl.so.44:_Z10_ntl_gswapPP17_ntl_gbigint_bodyS1_
libntl.so.44:_Z10_ntl_gzeroPP17_ntl_gbigint_body
libntl.so.44:_Z10_ntl_ldexpdl
libntl.so.44:_Z11_ntl_GetPIDv
libntl.so.44:_Z11_ntl_gintozlPP17_ntl_gbigint_body
libntl.so.44:_Z11_ntl_gisoneP17_ntl_gbigint_body
libntl.so.44:_Z11_ntl_gsqmodP17_ntl_gbigint_bodyS0_PS0_
libntl.so.44:_Z11_ntl_gsqrtsl
libntl.so.44:_Z11_ntl_gtointP17_ntl_gbigint_body
libntl.so.44:_Z12_ntl_GetTimev
libntl.so.44:_Z12_ntl_gaddmodP17_ntl_gbigint_bodyS0_S0_PS0_
libntl.so.44:_Z12_ntl_gaddmulP17_ntl_gbigint_bodyS0_PS0_
libntl.so.44:_Z12_ntl_ginvmodP17_ntl_gbigint_bodyS0_PS0_
libntl.so.44:_Z12_ntl_glshiftP17_ntl_gbigint_bodylPS0_
libntl.so.44:_Z12_ntl_gmulmodP17_ntl_gbigint_bodyS0_S0_PS0_
libntl.so.44:_Z12_ntl_gnegatePP17_ntl_gbigint_body
libntl.so.44:_Z12_ntl_grshiftP17_ntl_gbigint_bodylPS0_
libntl.so.44:_Z12_ntl_gsetbitPP17_ntl_gbigint_bodyl
libntl.so.44:_Z12_ntl_gsptestP17_ntl_gbigint_body
libntl.so.44:_Z12_ntl_gsubmodP17_ntl_gbigint_bodyS0_S0_PS0_
libntl.so.44:_Z12_ntl_gsubmulP17_ntl_gbigint_bodyS0_PS0_
libntl.so.44:_Z12_ntl_gsubposP17_ntl_gbigint_bodyS0_PS0_
libntl.so.44:_Z12_ntl_gtouintP17_ntl_gbigint_body
libntl.so.44:_Z12_ntl_guintozmPP17_ntl_gbigint_body
libntl.so.44:_Z12_ntl_gweightP17_ntl_gbigint_body
libntl.so.44:_Z13_ntl_IsFinitePd
libntl.so.44:_Z13_ntl_gaorsmulP17_ntl_gbigint_bodyS0_lPS0_
libntl.so.44:_Z13_ntl_gcompareP17_ntl_gbigint_bodyS0_
libntl.so.44:_Z13_ntl_gdoubtozdPP17_ntl_gbigint_body
libntl.so.44:_Z13_ntl_gexteuclP17_ntl_gbigint_bodyPS0_S0_S1_S1_
libntl.so.44:_Z13_ntl_ggcd_altP17_ntl_gbigint_bodyS0_PS0_
libntl.so.44:_Z13_ntl_glowbitsP17_ntl_gbigint_bodylPS0_
libntl.so.44:_Z13_ntl_gmakeoddPP17_ntl_gbigint_body
libntl.so.44:_Z13_ntl_gnumtwosP17_ntl_gbigint_body
libntl.so.44:_Z13_ntl_gsaddmulP17_ntl_gbigint_bodylPS0_
libntl.so.44:_Z13_ntl_gsmulmodP17_ntl_gbigint_bodylS0_PS0_
libntl.so.44:_Z13_ntl_gssubmulP17_ntl_gbigint_bodylPS0_
libntl.so.44:_Z13_ntl_gweightsl
libntl.so.44:_Z13_ntl_gwsptestP17_ntl_gbigint_body
libntl.so.44:_Z14_ntl_gdoub_auxP17_ntl_gbigint_body
libntl.so.44:_Z14_ntl_gpowermodP17_ntl_gbigint_bodyS0_S0_PS0_
libntl.so.44:_Z14_ntl_gquickmodPP17_ntl_gbigint_bodyS0_
libntl.so.44:_Z14_ntl_gscompareP17_ntl_gbigint_bodyl
libntl.so.44:_Z14_ntl_gslowbitsP17_ntl_gbigint_bodyl
libntl.so.44:_Z14_ntl_gvalidateP17_ntl_gbigint_body
libntl.so.44:_Z14_ntl_ss_addmodPP17_ntl_gbigint_bodyPKS0_S3_S0_l
libntl.so.44:_Z14_ntl_ss_submodPP17_ntl_gbigint_bodyPKS0_S3_S0_l
libntl.so.44:_Z15_ntl_ForceToMemPd
libntl.so.44:_Z15_ntl_gaorsmul_1P17_ntl_gbigint_bodyllPS0_
libntl.so.44:_Z15_ntl_gfrombytesPP17_ntl_gbigint_bodyPKhl
libntl.so.44:_Z15_ntl_glimbs_setPKmlPP17_ntl_gbigint_body
libntl.so.44:_Z15_ntl_gsetlengthPP17_ntl_gbigint_bodyl
libntl.so.44:_Z15_ntl_gswitchbitPP17_ntl_gbigint_bodyl
libntl.so.44:_Z15_ntl_leftrotatePP17_ntl_gbigint_bodyPKS0_lS0_lS1_
libntl.so.44:_Z16_ntl_GetWallTimev
libntl.so.44:_Z16_ntl_gbytesfromzPhP17_ntl_gbigint_bodyl
libntl.so.44:_Z16_ntl_gcrtinrangeP17_ntl_gbigint_bodyS0_
libntl.so.44:_Z16_ntl_gxxratreconP17_ntl_gbigint_bodyS0_S0_S0_PS0_S1_
libntl.so.44:_Z17_ntl_pd_FFT_dummyv
libntl.so.44:_Z19_ntl_gblock_destroyP17_ntl_gbigint_body
libntl.so.44:_Z19_ntl_gblock_storagel
libntl.so.44:_Z20_ntl_quick_accum_endP17_ntl_gbigint_body
libntl.so.44:_Z21_ntl_crt_struct_buildlP17_ntl_gbigint_bodyPFllE
libntl.so.44:_Z21_ntl_rem_struct_buildlP17_ntl_gbigint_bodyPFllE
libntl.so.44:_Z22_ntl_ground_correctionP17_ntl_gbigint_bodyll
libntl.so.44:_Z22_ntl_quick_accum_beginPP17_ntl_gbigint_bodyl
libntl.so.44:_Z23_ntl_quick_accum_muladdP17_ntl_gbigint_bodyS0_l
libntl.so.44:_Z24_ntl_reduce_struct_buildP17_ntl_gbigint_bodyS0_
libntl.so.44:_Z25_ntl_gblock_construct_setP17_ntl_gbigint_bodyPS0_l
libntl.so.44:_Z27_ntl_gblock_construct_allocPP17_ntl_gbigint_bodyll
libntl.so.44:_Z33_ntl_general_rem_one_struct_applyP17_ntl_gbigint_bodylP27_ntl_general_rem_one_struct
libntl.so.44:_Z33_ntl_general_rem_one_struct_buildl
libntl.so.44:_Z34_ntl_general_rem_one_struct_apply1PmlllP27_ntl_general_rem_one_struct
libntl.so.44:_Z34_ntl_general_rem_one_struct_deleteP27_ntl_general_rem_one_struct
libntl.so.44:_Z8_ntl_gorP17_ntl_gbigint_bodyS0_PS0_
libntl.so.44:_Z8_ntl_gsqP17_ntl_gbigint_bodyPS0_
libntl.so.44:_Z9_ntl_gabsPP17_ntl_gbigint_body
libntl.so.44:_Z9_ntl_gaddP17_ntl_gbigint_bodyS0_PS0_
libntl.so.44:_Z9_ntl_gandP17_ntl_gbigint_bodyS0_PS0_
libntl.so.44:_Z9_ntl_gbitP17_ntl_gbigint_bodyl
libntl.so.44:_Z9_ntl_gdivP17_ntl_gbigint_bodyS0_PS0_S1_
libntl.so.44:_Z9_ntl_gexpP17_ntl_gbigint_bodylPS0_
libntl.so.44:_Z9_ntl_ggcdP17_ntl_gbigint_bodyS0_PS0_
libntl.so.44:_Z9_ntl_ginvP17_ntl_gbigint_bodyS0_PS0_
libntl.so.44:_Z9_ntl_glogP17_ntl_gbigint_body
libntl.so.44:_Z9_ntl_gmodP17_ntl_gbigint_bodyS0_PS0_
libntl.so.44:_Z9_ntl_gmulP17_ntl_gbigint_bodyS0_PS0_
libntl.so.44:_Z9_ntl_goddP17_ntl_gbigint_body
libntl.so.44:_Z9_ntl_gonePP17_ntl_gbigint_body
libntl.so.44:_Z9_ntl_gsubP17_ntl_gbigint_bodyS0_PS0_
libntl.so.44:_Z9_ntl_gxorP17_ntl_gbigint_bodyS0_PS0_
libntl.so.44:_ZN19_ntl_crt_struct_tbl4evalEPP17_ntl_gbigint_bodyPKlP12_ntl_tmp_vec
libntl.so.44:_ZN19_ntl_crt_struct_tbl5fetchEv
libntl.so.44:_ZN19_ntl_crt_struct_tbl6insertElP17_ntl_gbigint_body
libntl.so.44:_ZN19_ntl_crt_struct_tbl7extractEv
libntl.so.44:_ZN19_ntl_crt_struct_tbl7specialEv
libntl.so.44:_ZN19_ntl_rem_struct_tbl4evalEPlP17_ntl_gbigint_bodyP12_ntl_tmp_vec
libntl.so.44:_ZN19_ntl_rem_struct_tbl5fetchEv
libntl.so.44:_ZN20_ntl_crt_struct_fast4evalEPP17_ntl_gbigint_bodyPKlP12_ntl_tmp_vec
libntl.so.44:_ZN20_ntl_crt_struct_fast5fetchEv
libntl.so.44:_ZN20_ntl_crt_struct_fast6insertElP17_ntl_gbigint_body
libntl.so.44:_ZN20_ntl_crt_struct_fast7extractEv
libntl.so.44:_ZN20_ntl_crt_struct_fast7specialEv
libntl.so.44:_ZN20_ntl_rem_struct_fast4evalEPlP17_ntl_gbigint_bodyP12_ntl_tmp_vec
libntl.so.44:_ZN20_ntl_rem_struct_fast5fetchEv
libntl.so.44:_ZN21_ntl_crt_struct_basic4evalEPP17_ntl_gbigint_bodyPKlP12_ntl_tmp_vec
libntl.so.44:_ZN21_ntl_crt_struct_basic5fetchEv
libntl.so.44:_ZN21_ntl_crt_struct_basic6insertElP17_ntl_gbigint_body
libntl.so.44:_ZN21_ntl_crt_struct_basic7extractEv
libntl.so.44:_ZN21_ntl_crt_struct_basic7specialEv
libntl.so.44:_ZN21_ntl_rem_struct_basic4evalEPlP17_ntl_gbigint_bodyP12_ntl_tmp_vec
libntl.so.44:_ZN21_ntl_rem_struct_basic5fetchEv
libntl.so.44:_ZN22_ntl_rem_struct_medium4evalEPlP17_ntl_gbigint_bodyP12_ntl_tmp_vec
libntl.so.44:_ZN22_ntl_rem_struct_medium5fetchEv
libntl.so.44:_ZN29_ntl_reduce_struct_montgomery4evalEPP17_ntl_gbigint_bodyS2_
libntl.so.44:_ZN29_ntl_reduce_struct_montgomery6adjustEPP17_ntl_gbigint_body
libntl.so.44:_ZN3NTL10BuildIrredERNS_4GF2XEl
libntl.so.44:_ZN3NTL10BuildIrredERNS_5GF2EXEl
libntl.so.44:_ZN3NTL10BuildIrredERNS_5ZZ_pXEl
libntl.so.44:_ZN3NTL10BuildIrredERNS_5zz_pXEl
libntl.so.44:_ZN3NTL10BuildIrredERNS_6ZZ_pEXEl
libntl.so.44:_ZN3NTL10BuildIrredERNS_6zz_pEXEl
libntl.so.44:_ZN3NTL10ChopTracesERNS_3VecINS_2ZZEEERKS2_lS5_RKS1_S7_S7_
libntl.so.44:_ZN3NTL10CloseWriteERSt14basic_ofstreamIcSt11char_traitsIcEE
libntl.so.44:_ZN3NTL10ComputeLn2ERNS_2RRE
libntl.so.44:_ZN3NTL10FromFFTRepEPNS_4ZZ_pERNS_6FFTRepEll
libntl.so.44:_ZN3NTL10FromFFTRepERNS_11ZZ_pXModRepERKNS_6FFTRepE
libntl.so.44:_ZN3NTL10FromFFTRepERNS_5ZZ_pXERNS_6FFTRepEll
libntl.so.44:_ZN3NTL10FromfftRepEPNS_4zz_pERNS_6fftRepEll
libntl.so.44:_ZN3NTL10FromfftRepERNS_5zz_pXERNS_6fftRepEll
libntl.so.44:_ZN3NTL10IsFFTPrimeElRl
libntl.so.44:_ZN3NTL10MakeRRPrecERNS_2RRERKNS_2ZZEll
libntl.so.44:_ZN3NTL10MinPolyModERNS_3ZZXERKS0_S3_
libntl.so.44:_ZN3NTL10MinPolyModERNS_4GF2XERKS0_RKNS_11GF2XModulusE
libntl.so.44:_ZN3NTL10MinPolyModERNS_4GF2XERKS0_RKNS_11GF2XModulusEl
libntl.so.44:_ZN3NTL10MinPolyModERNS_5GF2EXERKS0_RKNS_12GF2EXModulusE
libntl.so.44:_ZN3NTL10MinPolyModERNS_5GF2EXERKS0_RKNS_12GF2EXModulusEl
libntl.so.44:_ZN3NTL10MinPolyModERNS_5ZZ_pXERKS0_RKNS_12ZZ_pXModulusEl
libntl.so.44:_ZN3NTL10MinPolyModERNS_5zz_pXERKS0_RKNS_12zz_pXModulusEl
libntl.so.44:_ZN3NTL10MinPolyModERNS_6ZZ_pEXERKS0_RKNS_13ZZ_pEXModulusE
libntl.so.44:_ZN3NTL10MinPolyModERNS_6ZZ_pEXERKS0_RKNS_13ZZ_pEXModulusEl
libntl.so.44:_ZN3NTL10MinPolyModERNS_6zz_pEXERKS0_RKNS_13zz_pEXModulusE
libntl.so.44:_ZN3NTL10MinPolyModERNS_6zz_pEXERKS0_RKNS_13zz_pEXModulusEl
libntl.so.44:_ZN3NTL10MinPolySeqERNS_4GF2XERKNS_3VecINS_3GF2EEEl
libntl.so.44:_ZN3NTL10MinPolySeqERNS_5GF2EXERKNS_3VecINS_4GF2EEEEl
libntl.so.44:_ZN3NTL10MinPolySeqERNS_5ZZ_pXERKNS_3VecINS_4ZZ_pEEEl
libntl.so.44:_ZN3NTL10MinPolySeqERNS_5zz_pXERKNS_3VecINS_4zz_pEEEl
libntl.so.44:_ZN3NTL10MinPolySeqERNS_6ZZ_pEXERKNS_3VecINS_5ZZ_pEEEEl
libntl.so.44:_ZN3NTL10MinPolySeqERNS_6zz_pEXERKNS_3VecINS_5zz_pEEEEl
libntl.so.44:_ZN3NTL10NearVectorERNS_3VecINS_2ZZEEERKNS_3MatIS1_EERKS2_
libntl.so.44:_ZN3NTL10NegatePrecERNS_2RRERKS0_l
libntl.so.44:_ZN3NTL10RandomBitsERNS_2ZZEl
libntl.so.44:_ZN3NTL10RandomWordEv
libntl.so.44:_ZN3NTL10ResHalfGCDERNS_11ZZ_pXMatrixERKNS_5ZZ_pXES4_lRNS_3VecINS_4ZZ_pEEERNS5_IlEE
libntl.so.44:_ZN3NTL10ResHalfGCDERNS_11zz_pXMatrixERKNS_5zz_pXES4_lRNS_3VecINS_4zz_pEEERNS5_IlEE
libntl.so.44:_ZN3NTL10ResHalfGCDERNS_5ZZ_pXES1_RNS_3VecINS_4ZZ_pEEERNS2_IlEE
libntl.so.44:_ZN3NTL10ResHalfGCDERNS_5zz_pXES1_RNS_3VecINS_4zz_pEEERNS2_IlEE
libntl.so.44:_ZN3NTL10RightShiftERNS_3ZZXERKS0_l
libntl.so.44:_ZN3NTL10RightShiftERNS_4GF2XERKS0_l
libntl.so.44:_ZN3NTL10RightShiftERNS_5GF2EXERKS0_l
libntl.so.44:_ZN3NTL10RightShiftERNS_5ZZ_pXERKS0_l
libntl.so.44:_ZN3NTL10RightShiftERNS_5zz_pXERKS0_l
libntl.so.44:_ZN3NTL10RightShiftERNS_6ZZ_pEXERKS0_l
libntl.so.44:_ZN3NTL10RightShiftERNS_6zz_pEXERKS0_l
libntl.so.44:_ZN3NTL10SFCanZass1ERNS_3VecINS_4PairINS_5zz_pXElEEEERS2_RKS2_l
libntl.so.44:_ZN3NTL10SFCanZass2ERNS_3VecINS_5zz_pXEEERKNS0_INS_4PairIS1_lEEEERKS1_l
libntl.so.44:_ZN3NTL10SqrRootModERNS_2ZZERKS0_S3_
libntl.so.44:_ZN3NTL10VectorCopyERNS_3VecINS_2RREEERKS2_l
libntl.so.44:_ZN3NTL10VectorCopyERNS_3VecINS_2ZZEEERKS2_l
libntl.so.44:_ZN3NTL10VectorCopyERNS_3VecINS_3GF2EEERKNS_4GF2XEl
libntl.so.44:_ZN3NTL10VectorCopyERNS_3VecINS_3GF2EEERKS2_l
libntl.so.44:_ZN3NTL10VectorCopyERNS_3VecINS_4GF2EEEERKS2_l
libntl.so.44:_ZN3NTL10VectorCopyERNS_3VecINS_4ZZ_pEEERKS2_l
libntl.so.44:_ZN3NTL10VectorCopyERNS_3VecINS_4zz_pEEERKS2_l
libntl.so.44:_ZN3NTL10VectorCopyERNS_3VecINS_5ZZ_pEEEERKS2_l
libntl.so.44:_ZN3NTL10VectorCopyERNS_3VecINS_5zz_pEEEERKS2_l
libntl.so.44:_ZN3NTL10WV_storageEl
libntl.so.44:_ZN3NTL10WordVector11DoSetLengthEl
libntl.so.44:_ZN3NTL10WordVector12SetMaxLengthEl
libntl.so.44:_ZN3NTL10WordVector4killEv
libntl.so.44:_ZN3NTL10WordVector4swapERS0_
libntl.so.44:_ZN3NTL10WordVector6appendERKS0_
libntl.so.44:_ZN3NTL10WordVector6appendEm
libntl.so.44:_ZN3NTL10WordVectorD1Ev
libntl.so.44:_ZN3NTL10WordVectorD2Ev
libntl.so.44:_ZN3NTL10WordVectoraSERKS0_
libntl.so.44:_ZN3NTL10ZZ_pEInfoTC1ERKNS_5ZZ_pXE
libntl.so.44:_ZN3NTL10ZZ_pEInfoTC2ERKNS_5ZZ_pXE
libntl.so.44:_ZN3NTL10power_longEll
libntl.so.44:_ZN3NTL10quad_float18SetOutputPrecisionEl
libntl.so.44:_ZN3NTL10quad_float5oprecE
libntl.so.44:_ZN3NTL10to_xdoubleERKNS_2ZZE
libntl.so.44:_ZN3NTL10to_xdoubleEd
libntl.so.44:_ZN3NTL10zz_pEInfoTC1ERKNS_5zz_pXE
libntl.so.44:_ZN3NTL10zz_pEInfoTC2ERKNS_5zz_pXE
libntl.so.44:_ZN3NTL11CalcMaxRootEl
libntl.so.44:_ZN3NTL11CharPolyModERNS_3ZZXERKS0_S3_l
libntl.so.44:_ZN3NTL11CharPolyModERNS_5ZZ_pXERKS0_S3_
libntl.so.44:_ZN3NTL11CharPolyModERNS_5zz_pXERKS0_S3_
libntl.so.44:_ZN3NTL11ComputeLn10ERNS_2RRE
libntl.so.44:_ZN3NTL11CopyReverseERNS_3ZZXERKS0_l
libntl.so.44:_ZN3NTL11CopyReverseERNS_4GF2XERKS0_l
libntl.so.44:_ZN3NTL11CopyReverseERNS_5GF2EXERKS0_l
libntl.so.44:_ZN3NTL11CopyReverseERNS_5ZZ_pXERKS0_ll
libntl.so.44:_ZN3NTL11CopyReverseERNS_5zz_pXERKS0_ll
libntl.so.44:_ZN3NTL11CopyReverseERNS_6ZZ_pEXERKS0_l
libntl.so.44:_ZN3NTL11CopyReverseERNS_6zz_pEXERKS0_l
libntl.so.44:_ZN3NTL11ExtractBitsEPmPKmll
libntl.so.44:_ZN3NTL11FFTMulTruncERNS_5ZZ_pXERKS0_S3_l
libntl.so.44:_ZN3NTL11FFTMulTruncERNS_5zz_pXERKS0_S3_l
libntl.so.44:_ZN3NTL11FFTSqrTruncERNS_5ZZ_pXERKS0_l
libntl.so.44:_ZN3NTL11FFTSqrTruncERNS_5zz_pXERKS0_l
libntl.so.44:_ZN3NTL11FindFactorsERNS_3VecINS_6ZZ_pEXEEERKS1_S5_RKNS0_INS_5ZZ_pEEEE
libntl.so.44:_ZN3NTL11FindFactorsERNS_3VecINS_6zz_pEXEEERKS1_S5_RKNS0_INS_5zz_pEEEE
libntl.so.44:_ZN3NTL11GF2EContext4saveEv
libntl.so.44:_ZN3NTL11GF2XModulusC1ERKNS_4GF2XE
libntl.so.44:_ZN3NTL11GF2XModulusC1ERKS0_
libntl.so.44:_ZN3NTL11GF2XModulusC1Ev
libntl.so.44:_ZN3NTL11GF2XModulusC2ERKNS_4GF2XE
libntl.so.44:_ZN3NTL11GF2XModulusC2ERKS0_
libntl.so.44:_ZN3NTL11GF2XModulusC2Ev
libntl.so.44:_ZN3NTL11GF2XModulusaSERKS0_
libntl.so.44:_ZN3NTL11InnerProd_LEPKNS_4zz_pES2_llNS_16sp_reduce_structEl
libntl.so.44:_ZN3NTL11InnerProd_LEPKlPKNS_4zz_pEllNS_16sp_reduce_structEl
libntl.so.44:_ZN3NTL11InvModErrorEPKcRKNS_2ZZES4_
libntl.so.44:_ZN3NTL11IterHalfGCDERNS_11ZZ_pXMatrixERNS_5ZZ_pXES3_l
libntl.so.44:_ZN3NTL11IterHalfGCDERNS_11zz_pXMatrixERNS_5zz_pXES3_l
libntl.so.44:_ZN3NTL11IterHalfGCDERNS_16_NTL_GF2EXMatrixERNS_5GF2EXES3_l
libntl.so.44:_ZN3NTL11IterHalfGCDERNS_17_NTL_ZZ_pEXMatrixERNS_6ZZ_pEXES3_l
libntl.so.44:_ZN3NTL11IterHalfGCDERNS_17_NTL_zz_pEXMatrixERNS_6zz_pEXES3_l
libntl.so.44:_ZN3NTL11KarMul_longEPNS_4zz_pEPKS0_lS3_lS1_
libntl.so.44:_ZN3NTL11KarSqr_longEPNS_4zz_pEPKS0_lS1_
libntl.so.44:_ZN3NTL11LLLDumpFileE
libntl.so.44:_ZN3NTL11PlainDivRemERNS_4GF2XES1_RKS0_S3_
libntl.so.44:_ZN3NTL11PlainDivRemERNS_5GF2EXES1_RKS0_S3_
libntl.so.44:_ZN3NTL11PlainDivRemERNS_5GF2EXES1_RKS0_S3_RNS_7GF2XVecE
libntl.so.44:_ZN3NTL11PlainDivRemERNS_5ZZ_pXES1_RKS0_S3_
libntl.so.44:_ZN3NTL11PlainDivRemERNS_5ZZ_pXES1_RKS0_S3_RNS_5ZZVecE
libntl.so.44:_ZN3NTL11PlainDivRemERNS_5zz_pXES1_RKS0_S3_
libntl.so.44:_ZN3NTL11PlainDivRemERNS_6ZZ_pEXES1_RKS0_S3_
libntl.so.44:_ZN3NTL11PlainDivRemERNS_6ZZ_pEXES1_RKS0_S3_RNS_3VecINS_5ZZ_pXEEE
libntl.so.44:_ZN3NTL11PlainDivRemERNS_6zz_pEXES1_RKS0_S3_
libntl.so.44:_ZN3NTL11PlainDivRemERNS_6zz_pEXES1_RKS0_S3_RNS_3VecINS_5zz_pXEEE
libntl.so.44:_ZN3NTL11PlainDivideERKNS_3ZZXES2_
libntl.so.44:_ZN3NTL11PlainDivideERNS_3ZZXERKS0_S3_
libntl.so.44:_ZN3NTL11RandomPrimeERNS_2ZZEll
libntl.so.44:_ZN3NTL11RevToFFTRepERNS_6FFTRepERKNS_3VecINS_4ZZ_pEEEllll
libntl.so.44:_ZN3NTL11RevTofftRepERNS_6fftRepERKNS_3VecINS_4zz_pEEEllll
libntl.so.44:_ZN3NTL11SFBerlekampERNS_3VecINS_5GF2EXEEERKS1_l
libntl.so.44:_ZN3NTL11SFBerlekampERNS_3VecINS_5ZZ_pXEEERKS1_l
libntl.so.44:_ZN3NTL11SFBerlekampERNS_3VecINS_5zz_pXEEERKS1_l
libntl.so.44:_ZN3NTL11SqrRootPrecERNS_2RRERKS0_l
libntl.so.44:_ZN3NTL11TransMulModERNS_4GF2XERKS0_RKNS_19GF2XTransMultiplierERKNS_11GF2XModulusE
libntl.so.44:_ZN3NTL11TransMulModERNS_5GF2EXERKS0_RKNS_20GF2EXTransMultiplierERKNS_12GF2EXModulusE
libntl.so.44:_ZN3NTL11TransMulModERNS_6ZZ_pEXERKS0_RKNS_21ZZ_pEXTransMultiplierERKNS_13ZZ_pEXModulusE
libntl.so.44:_ZN3NTL11TransMulModERNS_6zz_pEXERKS0_RKNS_21zz_pEXTransMultiplierERKNS_13zz_pEXModulusE
libntl.so.44:_ZN3NTL11UseFFTPrimeEl
libntl.so.44:_ZN3NTL11UseMatPrimeEl
libntl.so.44:_ZN3NTL11UseMulDiv21ERNS_4GF2XERKS0_RKNS_11GF2XModulusE
libntl.so.44:_ZN3NTL11UseMulDiv21ERNS_5GF2EXERKS0_RKNS_12GF2EXModulusE
libntl.so.44:_ZN3NTL11UseMulDiv21ERNS_6ZZ_pEXERKS0_RKNS_13ZZ_pEXModulusE
libntl.so.44:_ZN3NTL11UseMulDiv21ERNS_6zz_pEXERKS0_RKNS_13zz_pEXModulusE
libntl.so.44:_ZN3NTL11UseMulDivX1ERNS_4GF2XERKS0_RKNS_11GF2XModulusE
libntl.so.44:_ZN3NTL11UseMulRem21ERNS_4GF2XERKS0_RKNS_11GF2XModulusE
libntl.so.44:_ZN3NTL11UseMulRem21ERNS_5GF2EXERKS0_RKNS_12GF2EXModulusE
libntl.so.44:_ZN3NTL11UseMulRem21ERNS_6ZZ_pEXERKS0_RKNS_13ZZ_pEXModulusE
libntl.so.44:_ZN3NTL11UseMulRem21ERNS_6zz_pEXERKS0_RKNS_13zz_pEXModulusE
libntl.so.44:_ZN3NTL11UseMulRemX1ERNS_4GF2XERKS0_RKNS_11GF2XModulusE
libntl.so.44:_ZN3NTL11ZZ_pContext4saveEv
libntl.so.44:_ZN3NTL11ZZ_pXMatrixaSERKS0_
libntl.so.44:_ZN3NTL11ZZ_pXModRep7SetSizeEl
libntl.so.44:_ZN3NTL11determinantENS_7ref_GF2ERKNS_3MatINS_3GF2EEE
libntl.so.44:_ZN3NTL11determinantERKNS_3MatINS_2RREEE
libntl.so.44:_ZN3NTL11determinantERNS_2RRERKNS_3MatIS0_EE
libntl.so.44:_ZN3NTL11determinantERNS_2ZZERKNS_3MatIS0_EEl
libntl.so.44:_ZN3NTL11determinantERNS_4GF2EERKNS_3MatIS0_EE
libntl.so.44:_ZN3NTL11determinantERNS_4ZZ_pERKNS_3MatIS0_EE
libntl.so.44:_ZN3NTL11determinantERNS_5ZZ_pEERKNS_3MatIS0_EE
libntl.so.44:_ZN3NTL11determinantERNS_5zz_pEERKNS_3MatIS0_EE
libntl.so.44:_ZN3NTL11interpolateERNS_5GF2EXERKNS_3VecINS_4GF2EEEES6_
libntl.so.44:_ZN3NTL11interpolateERNS_5ZZ_pXERKNS_3VecINS_4ZZ_pEEES6_
libntl.so.44:_ZN3NTL11interpolateERNS_5zz_pXERKNS_3VecINS_4zz_pEEES6_
libntl.so.44:_ZN3NTL11interpolateERNS_6ZZ_pEXERKNS_3VecINS_5ZZ_pEEEES6_
libntl.so.44:_ZN3NTL11interpolateERNS_6zz_pEXERKNS_3VecINS_5zz_pEEEES6_
libntl.so.44:_ZN3NTL11reconstructERKNS_19MatPrime_crt_helperERNS_2ZZEPKlRNS_27MatPrime_crt_helper_scratchE
libntl.so.44:_ZN3NTL11relaxed_invERNS_4zz_pERNS_3MatIS0_EERKS3_b
libntl.so.44:_ZN3NTL11zz_pContext4saveEv
libntl.so.44:_ZN3NTL11zz_pContextC1ERKNS_15INIT_FFT_STRUCTEl
libntl.so.44:_ZN3NTL11zz_pContextC1ERKNS_20INIT_USER_FFT_STRUCTEl
libntl.so.44:_ZN3NTL11zz_pContextC1Ell
libntl.so.44:_ZN3NTL11zz_pContextC2ERKNS_15INIT_FFT_STRUCTEl
libntl.so.44:_ZN3NTL11zz_pContextC2ERKNS_20INIT_USER_FFT_STRUCTEl
libntl.so.44:_ZN3NTL11zz_pContextC2Ell
libntl.so.44:_ZN3NTL11zz_pXMatrixaSERKS0_
libntl.so.44:_ZN3NTL12BlockDestroyEPNS_4GF2EEl
libntl.so.44:_ZN3NTL12BlockDestroyEPNS_4ZZ_pEl
libntl.so.44:_ZN3NTL12CharToIntValEl
libntl.so.44:_ZN3NTL12ComputeTraceERNS_3VecINS_2ZZEEERKNS_3ZZXElRKS1_
libntl.so.44:_ZN3NTL12CyclicReduceERNS_5ZZ_pXERKS0_l
libntl.so.44:_ZN3NTL12CyclicReduceERNS_5zz_pXERKS0_l
libntl.so.44:_ZN3NTL12DetIrredTestERKNS_5GF2EXE
libntl.so.44:_ZN3NTL12DetIrredTestERKNS_5ZZ_pXE
libntl.so.44:_ZN3NTL12DetIrredTestERKNS_5zz_pXE
libntl.so.44:_ZN3NTL12DetIrredTestERKNS_6ZZ_pEXE
libntl.so.44:_ZN3NTL12DetIrredTestERKNS_6zz_pEXE
libntl.so.44:_ZN3NTL12DoMinPolyModERNS_4GF2XERKS0_RKNS_11GF2XModulusElS3_
libntl.so.44:_ZN3NTL12DoMinPolyModERNS_5GF2EXERKS0_RKNS_12GF2EXModulusElS3_
libntl.so.44:_ZN3NTL12DoMinPolyModERNS_5ZZ_pXERKS0_RKNS_12ZZ_pXModulusElRKNS_3VecINS_4ZZ_pEEE
libntl.so.44:_ZN3NTL12DoMinPolyModERNS_5zz_pXERKS0_RKNS_12zz_pXModulusElRKNS_3VecINS_4zz_pEEE
libntl.so.44:_ZN3NTL12DoMinPolyModERNS_6ZZ_pEXERKS0_RKNS_13ZZ_pEXModulusElS3_
libntl.so.44:_ZN3NTL12DoMinPolyModERNS_6zz_pEXERKS0_RKNS_13zz_pEXModulusElS3_
libntl.so.44:_ZN3NTL12FastTraceVecERNS_3VecINS_4ZZ_pEEERKNS_5ZZ_pXE
libntl.so.44:_ZN3NTL12FastTraceVecERNS_3VecINS_4zz_pEEERKNS_5zz_pXE
libntl.so.44:_ZN3NTL12FrobeniusMapERNS_5GF2EXERKNS_12GF2EXModulusE
libntl.so.44:_ZN3NTL12FrobeniusMapERNS_6ZZ_pEXERKNS_13ZZ_pEXModulusE
libntl.so.44:_ZN3NTL12FrobeniusMapERNS_6zz_pEXERKNS_13zz_pEXModulusE
libntl.so.44:_ZN3NTL12GF2EXModulusC1ERKNS_5GF2EXE
libntl.so.44:_ZN3NTL12GF2EXModulusC1Ev
libntl.so.44:_ZN3NTL12GF2EXModulusC2ERKNS_5GF2EXE
libntl.so.44:_ZN3NTL12GF2EXModulusC2Ev
libntl.so.44:_ZN3NTL12HomPseudoDivERNS_3ZZXERKS0_S3_
libntl.so.44:_ZN3NTL12HomPseudoRemERNS_3ZZXERKS0_S3_
libntl.so.44:_ZN3NTL12InnerProd_LLEPKNS_4zz_pES2_llNS_19sp_ll_reduce_structE
libntl.so.44:_ZN3NTL12InnerProd_LLEPKlPKNS_4zz_pEllNS_19sp_ll_reduce_structE
libntl.so.44:_ZN3NTL12InnerProductERKNS_10WordVectorES2_
libntl.so.44:_ZN3NTL12InnerProductERNS_2RRERKNS_3VecIS0_EES5_
libntl.so.44:_ZN3NTL12InnerProductERNS_2ZZERKNS_3VecIS0_EES5_
libntl.so.44:_ZN3NTL12InnerProductERNS_4GF2EERKNS_3VecIS0_EES5_
libntl.so.44:_ZN3NTL12InnerProductERNS_4GF2EERKNS_3VecIS0_EES5_l
libntl.so.44:_ZN3NTL12InnerProductERNS_4GF2XERKS0_lllRKNS_3VecIS0_EElRNS_10WordVectorE
libntl.so.44:_ZN3NTL12InnerProductERNS_4ZZ_pERKNS_3VecIS0_EES5_
libntl.so.44:_ZN3NTL12InnerProductERNS_4ZZ_pERKNS_3VecIS0_EES5_l
libntl.so.44:_ZN3NTL12InnerProductERNS_4zz_pERKNS_3VecIS0_EES5_
libntl.so.44:_ZN3NTL12InnerProductERNS_4zz_pERKNS_3VecIS0_EES5_l
libntl.so.44:_ZN3NTL12InnerProductERNS_5GF2EXERKNS_3VecINS_4GF2EEEEllRKNS2_IS0_EElRNS_7GF2XVecE
libntl.so.44:_ZN3NTL12InnerProductERNS_5GF2EXERKNS_4GF2XEllRKNS_3VecIS0_EElRNS5_INS_4GF2EEEE
libntl.so.44:_ZN3NTL12InnerProductERNS_5ZZ_pEERKNS_3VecIS0_EES5_
libntl.so.44:_ZN3NTL12InnerProductERNS_5ZZ_pEERKNS_3VecIS0_EES5_l
libntl.so.44:_ZN3NTL12InnerProductERNS_5ZZ_pXERKNS_3VecINS_4ZZ_pEEEllRKNS2_IS0_EElRNS_5ZZVecE
libntl.so.44:_ZN3NTL12InnerProductERNS_5zz_pEERKNS_3VecIS0_EES5_
libntl.so.44:_ZN3NTL12InnerProductERNS_5zz_pEERKNS_3VecIS0_EES5_l
libntl.so.44:_ZN3NTL12InnerProductERNS_5zz_pXERKNS_3VecINS_4zz_pEEEllRKNS2_IS0_EElRS4_
libntl.so.44:_ZN3NTL12InnerProductERNS_6ZZ_pEXERKNS_3VecINS_4ZZ_pEEEllRKNS2_IS0_EElRNS2_INS_5ZZ_pEEEE
libntl.so.44:_ZN3NTL12InnerProductERNS_6ZZ_pEXERKNS_3VecINS_5ZZ_pEEEEllRKNS2_IS0_EElRNS2_INS_5ZZ_pXEEE
libntl.so.44:_ZN3NTL12InnerProductERNS_6zz_pEXERKNS_3VecINS_4zz_pEEEllRKNS2_IS0_EElRNS2_INS_5zz_pEEEE
libntl.so.44:_ZN3NTL12InnerProductERNS_6zz_pEXERKNS_3VecINS_5zz_pEEEEllRKNS2_IS0_EElRNS2_INS_5zz_pXEEE
libntl.so.44:_ZN3NTL12IntValToCharEl
libntl.so.44:_ZN3NTL12InvModStatusERNS_4GF2XERKS0_S3_
libntl.so.44:_ZN3NTL12InvModStatusERNS_5GF2EXERKS0_S3_
libntl.so.44:_ZN3NTL12InvModStatusERNS_5ZZ_pXERKS0_S3_
libntl.so.44:_ZN3NTL12InvModStatusERNS_5zz_pXERKS0_S3_
libntl.so.44:_ZN3NTL12InvModStatusERNS_6ZZ_pEXERKS0_S3_
libntl.so.44:_ZN3NTL12InvModStatusERNS_6zz_pEXERKS0_S3_
libntl.so.44:_ZN3NTL12InvModStatusERlll
libntl.so.44:_ZN3NTL12IrredPolyModERNS_4GF2XERKS0_RKNS_11GF2XModulusE
libntl.so.44:_ZN3NTL12IrredPolyModERNS_4GF2XERKS0_RKNS_11GF2XModulusEl
libntl.so.44:_ZN3NTL12IrredPolyModERNS_5GF2EXERKS0_RKNS_12GF2EXModulusE
libntl.so.44:_ZN3NTL12IrredPolyModERNS_5GF2EXERKS0_RKNS_12GF2EXModulusEl
libntl.so.44:_ZN3NTL12IrredPolyModERNS_5ZZ_pXERKS0_RKNS_12ZZ_pXModulusEl
libntl.so.44:_ZN3NTL12IrredPolyModERNS_5zz_pXERKS0_RKNS_12zz_pXModulusEl
libntl.so.44:_ZN3NTL12IrredPolyModERNS_6ZZ_pEXERKS0_RKNS_13ZZ_pEXModulusE
libntl.so.44:_ZN3NTL12IrredPolyModERNS_6ZZ_pEXERKS0_RKNS_13ZZ_pEXModulusEl
libntl.so.44:_ZN3NTL12IrredPolyModERNS_6zz_pEXERKS0_RKNS_13zz_pEXModulusE
libntl.so.44:_ZN3NTL12IrredPolyModERNS_6zz_pEXERKS0_RKNS_13zz_pEXModulusEl
libntl.so.44:_ZN3NTL12IsWhiteSpaceEl
libntl.so.44:_ZN3NTL12LatticeSolveERNS_3VecINS_2ZZEEERKNS_3MatIS1_EERKS2_l
libntl.so.44:_ZN3NTL12MinPolyTowerERNS_4GF2XERKNS_5GF2EXERKNS_12GF2EXModulusEl
libntl.so.44:_ZN3NTL12MinPolyTowerERNS_5ZZ_pXERKNS_6ZZ_pEXERKNS_13ZZ_pEXModulusEl
libntl.so.44:_ZN3NTL12MinPolyTowerERNS_5zz_pXERKNS_6zz_pEXERKNS_13zz_pEXModulusEl
libntl.so.44:_ZN3NTL12NDFromFFTRepERNS_5ZZ_pXERKNS_6FFTRepEllRS2_
libntl.so.44:_ZN3NTL12NDFromFFTRepERNS_5ZZ_pXERNS_6FFTRepEll
libntl.so.44:_ZN3NTL12NDFromfftRepERNS_5zz_pXERKNS_6fftRepEllRS2_
libntl.so.44:_ZN3NTL12NDFromfftRepERNS_5zz_pXERNS_6fftRepEll
libntl.so.44:_ZN3NTL12PowerComposeERNS_5GF2EXERKS0_lRKNS_12GF2EXModulusE
libntl.so.44:_ZN3NTL12PowerComposeERNS_5ZZ_pXERKS0_lRKNS_12ZZ_pXModulusE
libntl.so.44:_ZN3NTL12PowerComposeERNS_5zz_pXERKS0_lRKNS_12zz_pXModulusE
libntl.so.44:_ZN3NTL12PowerComposeERNS_6ZZ_pEXERKS0_lRKNS_13ZZ_pEXModulusE
libntl.so.44:_ZN3NTL12PowerComposeERNS_6zz_pEXERKS0_lRKNS_13zz_pEXModulusE
libntl.so.44:_ZN3NTL12ToModularRepERNS_3VecIlEERKNS_4ZZ_pEPKNS_12ZZ_pFFTInfoTEPNS_13ZZ_pTmpSpaceTE
libntl.so.44:_ZN3NTL12UseMulDivRemERNS_4GF2XES1_RKS0_S3_
libntl.so.44:_ZN3NTL12UseMulDivRemERNS_5GF2EXES1_RKS0_S3_
libntl.so.44:_ZN3NTL12UseMulDivRemERNS_6ZZ_pEXES1_RKS0_S3_
libntl.so.44:_ZN3NTL12UseMulDivRemERNS_6zz_pEXES1_RKS0_S3_
libntl.so.44:_ZN3NTL12ZZ_pEContext4saveEv
libntl.so.44:_ZN3NTL12ZZ_pTmpSpaceE
libntl.so.44:_ZN3NTL12ZZ_pXModulusC1ERKNS_5ZZ_pXE
libntl.so.44:_ZN3NTL12ZZ_pXModulusC2ERKNS_5ZZ_pXE
libntl.so.44:_ZN3NTL12discriminantERNS_2ZZERKNS_3ZZXEl
libntl.so.44:_ZN3NTL12mul_strassenERKNS_15mat_window_zz_pERKNS_21const_mat_window_zz_pES5_
libntl.so.44:_ZN3NTL12new_fft_baseEPmlRKNS_9new_mod_tE
libntl.so.44:_ZN3NTL12zz_pEContext4saveEv
libntl.so.44:_ZN3NTL12zz_pXModulusC1ERKNS_5zz_pXE
libntl.so.44:_ZN3NTL12zz_pXModulusC2ERKNS_5zz_pXE
libntl.so.44:_ZN3NTL13BytesFromGF2XEPhRKNS_4GF2XEl
libntl.so.44:_ZN3NTL13CharPolyBoundERKNS_3ZZXES2_
libntl.so.44:_ZN3NTL13ComputeDegreeERKNS_5ZZ_pXERKNS_12ZZ_pXModulusE
libntl.so.44:_ZN3NTL13ComputeDegreeERKNS_5zz_pXERKNS_12zz_pXModulusE
libntl.so.44:_ZN3NTL13ErrorCallbackE
libntl.so.44:_ZN3NTL13GCDMinPolySeqERNS_5ZZ_pXERKNS_3VecINS_4ZZ_pEEEl
libntl.so.44:_ZN3NTL13GCDMinPolySeqERNS_5zz_pXERKNS_3VecINS_4zz_pEEEl
libntl.so.44:_ZN3NTL13GF2EXArgBoundE
libntl.so.44:_ZN3NTL13GF2XFromBytesERNS_4GF2XEPKhl
libntl.so.44:_ZN3NTL13GenPrime_longEll
libntl.so.44:_ZN3NTL13IterIrredTestERKNS_4GF2XE
libntl.so.44:_ZN3NTL13IterIrredTestERKNS_5GF2EXE
libntl.so.44:_ZN3NTL13IterIrredTestERKNS_5ZZ_pXE
libntl.so.44:_ZN3NTL13IterIrredTestERKNS_5zz_pXE
libntl.so.44:_ZN3NTL13IterIrredTestERKNS_6ZZ_pEXE
libntl.so.44:_ZN3NTL13IterIrredTestERKNS_6zz_pEXE
libntl.so.44:_ZN3NTL13MillerWitnessERKNS_2ZZES2_
libntl.so.44:_ZN3NTL13PlainInvTruncERNS_5ZZ_pXERKS0_l
libntl.so.44:_ZN3NTL13PlainInvTruncERNS_5zz_pXERKS0_l
libntl.so.44:_ZN3NTL13PlainMulTruncERNS_5ZZ_pXERKS0_S3_l
libntl.so.44:_ZN3NTL13PlainMulTruncERNS_5zz_pXERKS0_S3_l
libntl.so.44:_ZN3NTL13PlainMul_longEPNS_4zz_pEPKS0_lS3_l
libntl.so.44:_ZN3NTL13PlainSqrTruncERNS_5ZZ_pXERKS0_l
libntl.so.44:_ZN3NTL13PlainSqrTruncERNS_5zz_pXERKS0_l
libntl.so.44:_ZN3NTL13PlainSqr_longEPNS_4zz_pEPKS0_l
libntl.so.44:_ZN3NTL13PlainTraceVecERNS_3VecINS_4GF2EEEERKNS_5GF2EXE
libntl.so.44:_ZN3NTL13PlainTraceVecERNS_3VecINS_4ZZ_pEEERKNS_5ZZ_pXE
libntl.so.44:_ZN3NTL13PlainTraceVecERNS_3VecINS_4zz_pEEERKNS_5zz_pXE
libntl.so.44:_ZN3NTL13PlainTraceVecERNS_3VecINS_5ZZ_pEEEERKNS_6ZZ_pEXE
libntl.so.44:_ZN3NTL13PlainTraceVecERNS_3VecINS_5zz_pEEEERKNS_6zz_pEXE
libntl.so.44:_ZN3NTL13PrimitivePartERNS_3ZZXERKS0_
libntl.so.44:_ZN3NTL13ProbIrredTestERKNS_5GF2EXEl
libntl.so.44:_ZN3NTL13ProbIrredTestERKNS_5ZZ_pXEl
libntl.so.44:_ZN3NTL13ProbIrredTestERKNS_5zz_pXEl
libntl.so.44:_ZN3NTL13ProbIrredTestERKNS_6ZZ_pEXEl
libntl.so.44:_ZN3NTL13ProbIrredTestERKNS_6zz_pEXEl
libntl.so.44:_ZN3NTL13ProjectPowersERNS_3VecINS_3GF2EEERKS2_lRKNS_12GF2XArgumentERKNS_11GF2XModulusE
libntl.so.44:_ZN3NTL13ProjectPowersERNS_3VecINS_3GF2EEERKS2_lRKNS_4GF2XERKNS_11GF2XModulusE
libntl.so.44:_ZN3NTL13ProjectPowersERNS_3VecINS_4GF2EEEERKS2_lRKNS_13GF2EXArgumentERKNS_12GF2EXModulusE
libntl.so.44:_ZN3NTL13ProjectPowersERNS_3VecINS_4GF2EEEERKS2_lRKNS_5GF2EXERKNS_12GF2EXModulusE
libntl.so.44:_ZN3NTL13ProjectPowersERNS_3VecINS_4ZZ_pEEERKS2_lRKNS_13ZZ_pXArgumentERKNS_12ZZ_pXModulusE
libntl.so.44:_ZN3NTL13ProjectPowersERNS_3VecINS_4ZZ_pEEERKS2_lRKNS_16ZZ_pXNewArgumentERKNS_12ZZ_pXModulusE
libntl.so.44:_ZN3NTL13ProjectPowersERNS_3VecINS_4ZZ_pEEERKS2_lRKNS_5ZZ_pXERKNS_12ZZ_pXModulusE
libntl.so.44:_ZN3NTL13ProjectPowersERNS_3VecINS_4zz_pEEERKS2_lRKNS_13zz_pXArgumentERKNS_12zz_pXModulusE
libntl.so.44:_ZN3NTL13ProjectPowersERNS_3VecINS_4zz_pEEERKS2_lRKNS_16zz_pXNewArgumentERKNS_12zz_pXModulusE
libntl.so.44:_ZN3NTL13ProjectPowersERNS_3VecINS_4zz_pEEERKS2_lRKNS_5zz_pXERKNS_12zz_pXModulusE
libntl.so.44:_ZN3NTL13ProjectPowersERNS_3VecINS_5ZZ_pEEEERKS2_lRKNS_14ZZ_pEXArgumentERKNS_13ZZ_pEXModulusE
libntl.so.44:_ZN3NTL13ProjectPowersERNS_3VecINS_5ZZ_pEEEERKS2_lRKNS_6ZZ_pEXERKNS_13ZZ_pEXModulusE
libntl.so.44:_ZN3NTL13ProjectPowersERNS_3VecINS_5zz_pEEEERKS2_lRKNS_14zz_pEXArgumentERKNS_13zz_pEXModulusE
libntl.so.44:_ZN3NTL13ProjectPowersERNS_3VecINS_5zz_pEEEERKS2_lRKNS_6zz_pEXERKNS_13zz_pEXModulusE
libntl.so.44:_ZN3NTL13ProjectPowersERNS_4GF2XERKS0_lRKNS_12GF2XArgumentERKNS_11GF2XModulusE
libntl.so.44:_ZN3NTL13ProjectPowersERNS_4GF2XERKS0_lS3_RKNS_11GF2XModulusE
libntl.so.44:_ZN3NTL13RevFromFFTRepERNS_3VecINS_4ZZ_pEEERNS_6FFTRepEll
libntl.so.44:_ZN3NTL13RevFromfftRepERNS_3VecINS_4zz_pEEERNS_6fftRepEll
libntl.so.44:_ZN3NTL13TerminalErrorEPKc
libntl.so.44:_ZN3NTL13ToZZ_pXModRepERNS_11ZZ_pXModRepERKNS_5ZZ_pXEll
libntl.so.44:_ZN3NTL13ZZ_pEXModulusC1ERKNS_6ZZ_pEXE
libntl.so.44:_ZN3NTL13ZZ_pEXModulusC1Ev
libntl.so.44:_ZN3NTL13ZZ_pEXModulusC2ERKNS_6ZZ_pEXE
libntl.so.44:_ZN3NTL13ZZ_pEXModulusC2Ev
libntl.so.44:_ZN3NTL13ZZ_pEXModulusD1Ev
libntl.so.44:_ZN3NTL13ZZ_pEXModulusD2Ev
libntl.so.44:_ZN3NTL13ZZ_pInstalledE
libntl.so.44:_ZN3NTL13ZZ_pXArgBoundE
libntl.so.44:_ZN3NTL13mul_transposeERNS_16mat_ZZ_p_crt_repERKS0_S3_
libntl.so.44:_ZN3NTL13new_fft_notabEPlPKllRKNS_12FFTPrimeInfoEll
libntl.so.44:_ZN3NTL13plain_mul_auxERNS_3MatINS_4ZZ_pEEERKS2_S5_
libntl.so.44:_ZN3NTL13relaxed_powerERNS_3MatINS_4zz_pEEERKS2_RKNS_2ZZEb
libntl.so.44:_ZN3NTL13relaxed_solveERNS_4zz_pERKNS_3MatIS0_EERNS_3VecIS0_EERKS7_b
libntl.so.44:_ZN3NTL13relaxed_solveERNS_4zz_pERNS_3VecIS0_EERKNS_3MatIS0_EERKS3_b
libntl.so.44:_ZN3NTL13to_quad_floatEl
libntl.so.44:_ZN3NTL13to_quad_floatEm
libntl.so.44:_ZN3NTL13transpose_auxERNS_3MatINS_3GF2EEERKS2_
libntl.so.44:_ZN3NTL13zz_pEXModulusC1ERKNS_6zz_pEXE
libntl.so.44:_ZN3NTL13zz_pEXModulusC1Ev
libntl.so.44:_ZN3NTL13zz_pEXModulusC2ERKNS_6zz_pEXE
libntl.so.44:_ZN3NTL13zz_pEXModulusC2Ev
libntl.so.44:_ZN3NTL13zz_pEXModulusD1Ev
libntl.so.44:_ZN3NTL13zz_pEXModulusD2Ev
libntl.so.44:_ZN3NTL13zz_pXArgBoundE
libntl.so.44:_ZN3NTL14BlockConstructEPNS_4GF2EEl
libntl.so.44:_ZN3NTL14BlockConstructEPNS_4ZZ_pEl
libntl.so.44:_ZN3NTL14BuildFromRootsERNS_5GF2EXERKNS_3VecINS_4GF2EEEE
libntl.so.44:_ZN3NTL14BuildFromRootsERNS_5ZZ_pXERKNS_3VecINS_4ZZ_pEEE
libntl.so.44:_ZN3NTL14BuildFromRootsERNS_5zz_pXERKNS_3VecINS_4zz_pEEE
libntl.so.44:_ZN3NTL14BuildFromRootsERNS_6ZZ_pEXERKNS_3VecINS_5ZZ_pEEEE
libntl.so.44:_ZN3NTL14BuildFromRootsERNS_6zz_pEXERKNS_3VecINS_5zz_pEEEE
libntl.so.44:_ZN3NTL14Build_zz_pInfoEPNS_12FFTPrimeInfoE
libntl.so.44:_ZN3NTL14DoMinPolyTowerERNS_4GF2XERKNS_5GF2EXERKNS_12GF2EXModulusElRKNS_3VecINS_4GF2EEEERKNS8_INS_3GF2EEE
libntl.so.44:_ZN3NTL14DoMinPolyTowerERNS_5ZZ_pXERKNS_6ZZ_pEXERKNS_13ZZ_pEXModulusElRKNS_3VecINS_5ZZ_pEEEERKNS8_INS_4ZZ_pEEE
libntl.so.44:_ZN3NTL14DoMinPolyTowerERNS_5zz_pXERKNS_6zz_pEXERKNS_13zz_pEXModulusElRKNS_3VecINS_5zz_pEEEERKNS8_INS_4zz_pEEE
libntl.so.44:_ZN3NTL14FromModularRepERNS_4ZZ_pERNS_3VecIlEEPKNS_12ZZ_pFFTInfoTEPNS_13ZZ_pTmpSpaceTE
libntl.so.44:_ZN3NTL14GivensCache_FP15selective_flushEl
libntl.so.44:_ZN3NTL14GivensCache_FP4incrEv
libntl.so.44:_ZN3NTL14GivensCache_FP4swapEl
libntl.so.44:_ZN3NTL14GivensCache_FP4swapEv
libntl.so.44:_ZN3NTL14GivensCache_FP5flushEv
libntl.so.44:_ZN3NTL14GivensCache_FP5touchEv
libntl.so.44:_ZN3NTL14GivensCache_FPC1Ell
libntl.so.44:_ZN3NTL14GivensCache_FPC2Ell
libntl.so.44:_ZN3NTL14GivensCache_QP15selective_flushEl
libntl.so.44:_ZN3NTL14GivensCache_QP4incrEv
libntl.so.44:_ZN3NTL14GivensCache_QP4swapEl
libntl.so.44:_ZN3NTL14GivensCache_QP4swapEv
libntl.so.44:_ZN3NTL14GivensCache_QP5flushEv
libntl.so.44:_ZN3NTL14GivensCache_QP5touchEv
libntl.so.44:_ZN3NTL14GivensCache_QPC1Ell
libntl.so.44:_ZN3NTL14GivensCache_QPC2Ell
libntl.so.44:_ZN3NTL14GivensCache_RR15selective_flushEl
libntl.so.44:_ZN3NTL14GivensCache_RR4incrEv
libntl.so.44:_ZN3NTL14GivensCache_RR4swapEl
libntl.so.44:_ZN3NTL14GivensCache_RR4swapEv
libntl.so.44:_ZN3NTL14GivensCache_RR5flushEv
libntl.so.44:_ZN3NTL14GivensCache_RR5touchEv
libntl.so.44:_ZN3NTL14GivensCache_RRC1Ell
libntl.so.44:_ZN3NTL14GivensCache_RRC2Ell
libntl.so.44:_ZN3NTL14GivensCache_XD15selective_flushEl
libntl.so.44:_ZN3NTL14GivensCache_XD4incrEv
libntl.so.44:_ZN3NTL14GivensCache_XD4swapEl
libntl.so.44:_ZN3NTL14GivensCache_XD4swapEv
libntl.so.44:_ZN3NTL14GivensCache_XD5flushEv
libntl.so.44:_ZN3NTL14GivensCache_XD5touchEv
libntl.so.44:_ZN3NTL14GivensCache_XDC1Ell
libntl.so.44:_ZN3NTL14GivensCache_XDC2Ell
libntl.so.44:_ZN3NTL14IrredPolyTowerERNS_4GF2XERKNS_5GF2EXERKNS_12GF2EXModulusEl
libntl.so.44:_ZN3NTL14IrredPolyTowerERNS_5ZZ_pXERKNS_6ZZ_pEXERKNS_13ZZ_pEXModulusEl
libntl.so.44:_ZN3NTL14IrredPolyTowerERNS_5zz_pXERKNS_6zz_pEXERKNS_13zz_pEXModulusEl
libntl.so.44:_ZN3NTL14MatPrimeTablesE
libntl.so.44:_ZN3NTL14NewtonInvTruncERNS_3ZZXERKS0_l
libntl.so.44:_ZN3NTL14NewtonInvTruncERNS_4GF2XERKS0_l
libntl.so.44:_ZN3NTL14NewtonInvTruncERNS_5GF2EXERKS0_l
libntl.so.44:_ZN3NTL14NewtonInvTruncERNS_5ZZ_pXERKS0_l
libntl.so.44:_ZN3NTL14NewtonInvTruncERNS_5zz_pXERKS0_l
libntl.so.44:_ZN3NTL14NextPowerOfTwoEl
libntl.so.44:_ZN3NTL14OldRandomPrimeERNS_2ZZEll
libntl.so.44:_ZN3NTL14PlainPseudoDivERNS_3ZZXERKS0_S3_
libntl.so.44:_ZN3NTL14PlainPseudoRemERNS_3ZZXERKS0_S3_
libntl.so.44:_ZN3NTL14PlainResultantERNS_4GF2EERKNS_5GF2EXES4_
libntl.so.44:_ZN3NTL14PlainResultantERNS_4ZZ_pERKNS_5ZZ_pXES4_
libntl.so.44:_ZN3NTL14PlainResultantERNS_4zz_pERKNS_5zz_pXES4_
libntl.so.44:_ZN3NTL14PlainResultantERNS_5ZZ_pEERKNS_6ZZ_pEXES4_
libntl.so.44:_ZN3NTL14PlainResultantERNS_5zz_pEERKNS_6zz_pEXES4_
libntl.so.44:_ZN3NTL14PlainUpdateMapERNS_3VecINS_4ZZ_pEEERKS2_RKNS_5ZZ_pXES8_
libntl.so.44:_ZN3NTL14PlainUpdateMapERNS_3VecINS_4zz_pEEERKS2_RKNS_5zz_pXES8_
libntl.so.44:_ZN3NTL14PowerXPlusAModERNS_5ZZ_pXERKNS_4ZZ_pERKNS_2ZZERKNS_12ZZ_pXModulusE
libntl.so.44:_ZN3NTL14PowerXPlusAModERNS_5zz_pXENS_4zz_pERKNS_2ZZERKNS_12zz_pXModulusE
libntl.so.44:_ZN3NTL14PrecomputeProjERNS_3VecINS_3GF2EEERKNS_4GF2XE
libntl.so.44:_ZN3NTL14PrecomputeProjERNS_3VecINS_4ZZ_pEEERKNS_5ZZ_pXE
libntl.so.44:_ZN3NTL14PrecomputeProjERNS_3VecINS_4zz_pEEERKNS_5zz_pXE
libntl.so.44:_ZN3NTL14ProbMinPolyModERNS_4GF2XERKS0_RKNS_11GF2XModulusE
libntl.so.44:_ZN3NTL14ProbMinPolyModERNS_4GF2XERKS0_RKNS_11GF2XModulusEl
libntl.so.44:_ZN3NTL14ProbMinPolyModERNS_5GF2EXERKS0_RKNS_12GF2EXModulusE
libntl.so.44:_ZN3NTL14ProbMinPolyModERNS_5GF2EXERKS0_RKNS_12GF2EXModulusEl
libntl.so.44:_ZN3NTL14ProbMinPolyModERNS_5ZZ_pXERKS0_RKNS_12ZZ_pXModulusEl
libntl.so.44:_ZN3NTL14ProbMinPolyModERNS_5zz_pXERKS0_RKNS_12zz_pXModulusEl
libntl.so.44:_ZN3NTL14ProbMinPolyModERNS_6ZZ_pEXERKS0_RKNS_13ZZ_pEXModulusE
libntl.so.44:_ZN3NTL14ProbMinPolyModERNS_6ZZ_pEXERKS0_RKNS_13ZZ_pEXModulusEl
libntl.so.44:_ZN3NTL14ProbMinPolyModERNS_6zz_pEXERKS0_RKNS_13zz_pEXModulusE
libntl.so.44:_ZN3NTL14ProbMinPolyModERNS_6zz_pEXERKS0_RKNS_13zz_pEXModulusEl
libntl.so.44:_ZN3NTL14RandomLen_longEl
libntl.so.44:_ZN3NTL14ReallyComputeEERNS_2RRE
libntl.so.44:_ZN3NTL14RecFindFactorsERNS_3VecINS_6ZZ_pEXEEERKS1_S5_RKNS0_INS_5ZZ_pEEEEll
libntl.so.44:_ZN3NTL14RecFindFactorsERNS_3VecINS_6zz_pEXEEERKS1_S5_RKNS0_INS_5zz_pEEEEll
libntl.so.44:_ZN3NTL14ResIterHalfGCDERNS_11ZZ_pXMatrixERNS_5ZZ_pXES3_lRNS_3VecINS_4ZZ_pEEERNS4_IlEE
libntl.so.44:_ZN3NTL14ResIterHalfGCDERNS_11zz_pXMatrixERNS_5zz_pXES3_lRNS_3VecINS_4zz_pEEERNS4_IlEE
libntl.so.44:_ZN3NTL14SkipWhiteSpaceERSi
libntl.so.44:_ZN3NTL14ToFFTRep_truncERNS_6FFTRepERKNS_5ZZ_pXEllll
libntl.so.44:_ZN3NTL14TofftRep_truncERNS_6fftRepERKNS_5zz_pXEllll
libntl.so.44:_ZN3NTL14UseMulDivRem21ERNS_4GF2XES1_RKS0_RKNS_11GF2XModulusE
libntl.so.44:_ZN3NTL14UseMulDivRem21ERNS_5GF2EXES1_RKS0_RKNS_12GF2EXModulusE
libntl.so.44:_ZN3NTL14UseMulDivRem21ERNS_6ZZ_pEXES1_RKS0_RKNS_13ZZ_pEXModulusE
libntl.so.44:_ZN3NTL14UseMulDivRem21ERNS_6zz_pEXES1_RKS0_RKNS_13zz_pEXModulusE
libntl.so.44:_ZN3NTL14UseMulDivRemX1ERNS_4GF2XES1_RKS0_RKNS_11GF2XModulusE
libntl.so.44:_ZN3NTL14ZZ_pEXArgBoundE
libntl.so.44:_ZN3NTL14new_ifft_notabEPlPKllRKNS_12FFTPrimeInfoEl
libntl.so.44:_ZN3NTL14zz_pEXArgBoundE
libntl.so.44:_ZN3NTL15BerlekampMasseyERNS_5GF2EXERKNS_3VecINS_4GF2EEEEl
libntl.so.44:_ZN3NTL15BerlekampMasseyERNS_5ZZ_pXERKNS_3VecINS_4ZZ_pEEEl
libntl.so.44:_ZN3NTL15BerlekampMasseyERNS_5zz_pXERKNS_3VecINS_4zz_pEEEl
libntl.so.44:_ZN3NTL15BerlekampMasseyERNS_6ZZ_pEXERKNS_3VecINS_5ZZ_pEEEEl
libntl.so.44:_ZN3NTL15BerlekampMasseyERNS_6zz_pEXERKNS_3VecINS_5zz_pEEEEl
libntl.so.44:_ZN3NTL15ComputeTraceVecERNS_3VecINS_4zz_pEEERKNS_12zz_pXModulusE
libntl.so.44:_ZN3NTL15CurrentThreadIDB5cxx11Ev
libntl.so.44:_ZN3NTL15FromZZ_pXModRepERNS_5ZZ_pXERKNS_11ZZ_pXModRepEll
libntl.so.44:_ZN3NTL15GF2EXFileThreshE
libntl.so.44:_ZN3NTL15GenGermainPrimeERNS_2ZZEll
libntl.so.44:_ZN3NTL15HomPseudoDivRemERNS_3ZZXES1_RKS0_S3_
libntl.so.44:_ZN3NTL15IterFindFactorsERNS_3VecINS_6ZZ_pEXEEERKS1_S5_RKNS0_INS_5ZZ_pEEEE
libntl.so.44:_ZN3NTL15IterFindFactorsERNS_3VecINS_6zz_pEXEEERKS1_S5_RKNS0_INS_5zz_pEEEE
libntl.so.44:_ZN3NTL15MinPolyInternalERNS_4GF2XERKS0_l
libntl.so.44:_ZN3NTL15RandomBits_longEl
libntl.so.44:_ZN3NTL15ReallyComputePiERNS_2RRE
libntl.so.44:_ZN3NTL15ResetThreadPoolEPNS_15BasicThreadPoolE
libntl.so.44:_ZN3NTL15WV_BlockDestroyERNS_10WordVectorE
libntl.so.44:_ZN3NTL15ZZXFac_MaxPruneE
libntl.so.44:_ZN3NTL15ZZ_pXFileThreshE
libntl.so.44:_ZN3NTL15ZZ_pXMultiplierC1ERKNS_5ZZ_pXERKNS_12ZZ_pXModulusE
libntl.so.44:_ZN3NTL15ZZ_pXMultiplierC2ERKNS_5ZZ_pXERKNS_12ZZ_pXModulusE
libntl.so.44:_ZN3NTL15_NTL_GF2XMatrixaSERKS0_
libntl.so.44:_ZN3NTL15_ZZ_local_stack4pushEl
libntl.so.44:_ZN3NTL15new_fft_flippedEPlPKllRKNS_12FFTPrimeInfoE
libntl.so.44:_ZN3NTL15zz_pXMultiplierC1ERKNS_5zz_pXERKNS_12zz_pXModulusE
libntl.so.44:_ZN3NTL15zz_pXMultiplierC2ERKNS_5zz_pXERKNS_12zz_pXModulusE
libntl.so.44:_ZN3NTL16BuildRandomIrredERNS_4GF2XERKS0_
libntl.so.44:_ZN3NTL16BuildRandomIrredERNS_5GF2EXERKS0_
libntl.so.44:_ZN3NTL16BuildRandomIrredERNS_5ZZ_pXERKS0_
libntl.so.44:_ZN3NTL16BuildRandomIrredERNS_5zz_pXERKS0_
libntl.so.44:_ZN3NTL16BuildRandomIrredERNS_6ZZ_pEXERKS0_
libntl.so.44:_ZN3NTL16BuildRandomIrredERNS_6zz_pEXERKS0_
libntl.so.44:_ZN3NTL16BuildSparseIrredERNS_4GF2XEl
libntl.so.44:_ZN3NTL16ErrorMsgCallbackE
libntl.so.44:_ZN3NTL16InitFFTPrimeInfoERNS_12FFTPrimeInfoElll
libntl.so.44:_ZN3NTL16InitMatPrimeInfoERNS_12MatPrimeInfoEl
libntl.so.44:_ZN3NTL16NewFastCRTHelper13fill_prod_vecEl
libntl.so.44:_ZN3NTL16NewFastCRTHelper16fill_nprimes_vecEl
libntl.so.44:_ZN3NTL16NewFastCRTHelperC1El
libntl.so.44:_ZN3NTL16NewFastCRTHelperC2El
libntl.so.44:_ZN3NTL16ProbMinPolyTowerERNS_4GF2XERKNS_5GF2EXERKNS_12GF2EXModulusEl
libntl.so.44:_ZN3NTL16ProbMinPolyTowerERNS_4GF2XERKNS_5GF2EXERKNS_12GF2EXModulusElRKNS_3VecINS_3GF2EEE
libntl.so.44:_ZN3NTL16ProbMinPolyTowerERNS_5ZZ_pXERKNS_6ZZ_pEXERKNS_13ZZ_pEXModulusEl
libntl.so.44:_ZN3NTL16ProbMinPolyTowerERNS_5ZZ_pXERKNS_6ZZ_pEXERKNS_13ZZ_pEXModulusElRKNS_3VecINS_4ZZ_pEEE
libntl.so.44:_ZN3NTL16ProbMinPolyTowerERNS_5zz_pXERKNS_6zz_pEXERKNS_13zz_pEXModulusEl
libntl.so.44:_ZN3NTL16ProbMinPolyTowerERNS_5zz_pXERKNS_6zz_pEXERKNS_13zz_pEXModulusElRKNS_3VecINS_4zz_pEEE
libntl.so.44:_ZN3NTL16RandomBits_ulongEl
libntl.so.44:_ZN3NTL16RandomPrime_longEll
libntl.so.44:_ZN3NTL16ReallyComputeLn2ERNS_2RRE
libntl.so.44:_ZN3NTL16RecComputeDegreeERKNS_5GF2EXERKNS_12GF2EXModulusE
libntl.so.44:_ZN3NTL16RecComputeDegreeERKNS_6ZZ_pEXERKNS_13ZZ_pEXModulusE
libntl.so.44:_ZN3NTL16RecComputeDegreeERKNS_6zz_pEXERKNS_13zz_pEXModulusE
libntl.so.44:_ZN3NTL16RecComputeDegreeElRKNS_5zz_pXERKNS_12zz_pXModulusERNS_3VecINS_9IntFactorEEE
libntl.so.44:_ZN3NTL16RecComputeDegreeElRKNS_6ZZ_pEXERKNS_13ZZ_pEXModulusERNS_3VecINS_9IntFactorEEE
libntl.so.44:_ZN3NTL16RecComputeDegreeElRKNS_6zz_pEXERKNS_13zz_pEXModulusERNS_3VecINS_9IntFactorEEE
libntl.so.44:_ZN3NTL16RoundToPrecisionERNS_2RRERKS0_l
libntl.so.44:_ZN3NTL16SquareFreeDecompERNS_3VecINS_4PairINS_3ZZXElEEEERKS2_
libntl.so.44:_ZN3NTL16SquareFreeDecompERNS_3VecINS_4PairINS_4GF2XElEEEERKS2_
libntl.so.44:_ZN3NTL16SquareFreeDecompERNS_3VecINS_4PairINS_5GF2EXElEEEERKS2_
libntl.so.44:_ZN3NTL16SquareFreeDecompERNS_3VecINS_4PairINS_5ZZ_pXElEEEERKS2_
libntl.so.44:_ZN3NTL16SquareFreeDecompERNS_3VecINS_4PairINS_5zz_pXElEEEERKS2_
libntl.so.44:_ZN3NTL16SquareFreeDecompERNS_3VecINS_4PairINS_6ZZ_pEXElEEEERKS2_
libntl.so.44:_ZN3NTL16SquareFreeDecompERNS_3VecINS_4PairINS_6zz_pEXElEEEERKS2_
libntl.so.44:_ZN3NTL16VectorRandomWordElPm
libntl.so.44:_ZN3NTL16ZZXFac_PowerHackE
libntl.so.44:_ZN3NTL16ZZXFac_van_HoeijE
libntl.so.44:_ZN3NTL16ZZ_pEXFileThreshE
libntl.so.44:_ZN3NTL16_NTL_GF2EXMatrixaSERKS0_
libntl.so.44:_ZN3NTL16new_ifft_flippedEPlPKllRKNS_12FFTPrimeInfoE
libntl.so.44:_ZN3NTL16old_RandomStream6do_getEPhl
libntl.so.44:_ZN3NTL16old_RandomStreamC1EPKh
libntl.so.44:_ZN3NTL16old_RandomStreamC2EPKh
libntl.so.44:_ZN3NTL16zz_pEXFileThreshE
libntl.so.44:_ZN3NTL17AdditionalLiftingERNS_2ZZERlRNS_3VecINS_3ZZXEEEllRKS4_ll
libntl.so.44:_ZN3NTL17ComputeMax10PowerEv
libntl.so.44:_ZN3NTL17IterComputeDegreeERKNS_5GF2EXERKNS_12GF2EXModulusE
libntl.so.44:_ZN3NTL17IterComputeDegreeERKNS_6ZZ_pEXERKNS_13ZZ_pEXModulusE
libntl.so.44:_ZN3NTL17IterComputeDegreeERKNS_6zz_pEXERKNS_13zz_pEXModulusE
libntl.so.44:_ZN3NTL17LLLStatusIntervalE
libntl.so.44:_ZN3NTL17NTLThreadPool_ptrE
libntl.so.44:_ZN3NTL17PlainFrobeniusMapERNS_5GF2EXERKNS_12GF2EXModulusE
libntl.so.44:_ZN3NTL17PlainPseudoDivRemERNS_3ZZXES1_RKS0_S3_
libntl.so.44:_ZN3NTL17PrepareProjectionERNS_3VecINS0_INS_3GF2EEEEERKNS0_INS_4GF2EEEERKS2_
libntl.so.44:_ZN3NTL17PrepareProjectionERNS_3VecINS0_INS_4ZZ_pEEEEERKNS0_INS_5ZZ_pEEEERKS2_
libntl.so.44:_ZN3NTL17PrepareProjectionERNS_3VecINS0_INS_4zz_pEEEEERKNS0_INS_5zz_pEEEERKS2_
libntl.so.44:_ZN3NTL17ProbComputeDegreeERKNS_5ZZ_pXERKNS_12ZZ_pXModulusE
libntl.so.44:_ZN3NTL17ProbComputeDegreeERKNS_5zz_pXERKNS_12zz_pXModulusE
libntl.so.44:_ZN3NTL17ReleaseThreadPoolEv
libntl.so.44:_ZN3NTL17_NTL_ZZ_pEXMatrixaSERKS0_
libntl.so.44:_ZN3NTL17_NTL_zz_pEXMatrixaSERKS0_
libntl.so.44:_ZN3NTL17multi_modular_mulERNS_3MatINS_4ZZ_pEEERKS2_RKNS_16mat_ZZ_p_crt_repE
libntl.so.44:_ZN3NTL17multi_modular_mulERNS_3MatINS_4ZZ_pEEERKS2_S5_
libntl.so.44:_ZN3NTL17random_quad_floatEv
libntl.so.44:_ZN3NTL18ComputeMultipliersERNS_3VecINS_13FFTVectorPairEEEllNS_10sp_inverseEPKl
libntl.so.44:_ZN3NTL18GF2EX_GCDTableSizeE
libntl.so.44:_ZN3NTL18OldGenGermainPrimeERNS_2ZZEll
libntl.so.44:_ZN3NTL18OldMinPolyInternalERNS_4GF2XERKS0_l
libntl.so.44:_ZN3NTL18ProjectPowersTowerERNS_3VecINS_3GF2EEERKNS0_INS_4GF2EEEElRKNS_13GF2EXArgumentERKNS_12GF2EXModulusERKS2_
libntl.so.44:_ZN3NTL18ProjectPowersTowerERNS_3VecINS_3GF2EEERKNS0_INS_4GF2EEEElRKNS_5GF2EXERKNS_12GF2EXModulusERKS2_
libntl.so.44:_ZN3NTL18ProjectPowersTowerERNS_3VecINS_4ZZ_pEEERKNS0_INS_5ZZ_pEEEElRKNS_14ZZ_pEXArgumentERKNS_13ZZ_pEXModulusERKS2_
libntl.so.44:_ZN3NTL18ProjectPowersTowerERNS_3VecINS_4ZZ_pEEERKNS0_INS_5ZZ_pEEEElRKNS_6ZZ_pEXERKNS_13ZZ_pEXModulusERKS2_
libntl.so.44:_ZN3NTL18ProjectPowersTowerERNS_3VecINS_4zz_pEEERKNS0_INS_5zz_pEEEElRKNS_14zz_pEXArgumentERKNS_13zz_pEXModulusERKS2_
libntl.so.44:_ZN3NTL18ProjectPowersTowerERNS_3VecINS_4zz_pEEERKNS0_INS_5zz_pEEEElRKNS_6zz_pEXERKNS_13zz_pEXModulusERKS2_
libntl.so.44:_ZN3NTL18TandemPowerComposeERNS_5zz_pXES1_RKS0_llRKNS_12zz_pXModulusE
libntl.so.44:_ZN3NTL18TandemPowerComposeERNS_6ZZ_pEXES1_RKS0_llRKNS_13ZZ_pEXModulusE
libntl.so.44:_ZN3NTL18TandemPowerComposeERNS_6zz_pEXES1_RKS0_llRKNS_13zz_pEXModulusE
libntl.so.44:_ZN3NTL18ZZ_pX_GCDTableSizeE
libntl.so.44:_ZN3NTL18muladd1_by_32_fullEPlPKlS2_lNS_19sp_ll_reduce_structE
libntl.so.44:_ZN3NTL18zz_pX_GCDTableSizeE
libntl.so.44:_ZN3NTL19ComposeFrobeniusMapERNS_5GF2EXERKNS_12GF2EXModulusE
libntl.so.44:_ZN3NTL19UseComposeFrobeniusEll
libntl.so.44:_ZN3NTL19ZZXFac_MaxNumPrimesE
libntl.so.44:_ZN3NTL19ZZ_pEX_GCDTableSizeE
libntl.so.44:_ZN3NTL19plain_mul_transposeERNS_3MatINS_4ZZ_pEEERKS2_S5_
libntl.so.44:_ZN3NTL19relaxed_determinantERNS_4zz_pERKNS_3MatIS0_EEb
libntl.so.44:_ZN3NTL19to_mat_ZZ_p_crt_repERNS_16mat_ZZ_p_crt_repERKNS_3MatINS_4ZZ_pEEE
libntl.so.44:_ZN3NTL19zz_pEX_GCDTableSizeE
libntl.so.44:_ZN3NTL19zz_pX_div_crossoverE
libntl.so.44:_ZN3NTL19zz_pX_gcd_crossoverE
libntl.so.44:_ZN3NTL19zz_pX_mod_crossoverE
libntl.so.44:_ZN3NTL19zz_pX_mul_crossoverE
libntl.so.44:_ZN3NTL20GF2EX_BlockingFactorE
libntl.so.44:_ZN3NTL20GenGermainPrime_longEll
libntl.so.44:_ZN3NTL20WV_BlockConstructSetERNS_10WordVectorES1_l
libntl.so.44:_ZN3NTL20ZZXFac_InitNumPrimesE
libntl.so.44:_ZN3NTL20ZZ_pX_BlockingFactorE
libntl.so.44:_ZN3NTL20new_fft_base_flippedEPmlRKNS_9new_mod_tE
libntl.so.44:_ZN3NTL20quad_float_normalizeERNS_10quad_floatERKdS3_
libntl.so.44:_ZN3NTL20zz_pX_BlockingFactorE
libntl.so.44:_ZN3NTL21BlockConstructFromObjEPNS_4GF2EElRKS0_
libntl.so.44:_ZN3NTL21BlockConstructFromObjEPNS_4ZZ_pElRKS0_
libntl.so.44:_ZN3NTL21BlockConstructFromVecEPNS_4GF2EElPKS0_
libntl.so.44:_ZN3NTL21BlockConstructFromVecEPNS_4ZZ_pElPKS0_
libntl.so.44:_ZN3NTL21ProjectedInnerProductENS_7ref_GF2ERKNS_3VecINS_4GF2EEEERKNS1_INS1_INS_3GF2EEEEE
libntl.so.44:_ZN3NTL21ProjectedInnerProductERNS_4ZZ_pERKNS_3VecINS_5ZZ_pEEEERKNS2_INS2_IS0_EEEE
libntl.so.44:_ZN3NTL21ProjectedInnerProductERNS_4zz_pERKNS_3VecINS_5zz_pEEEERKNS2_INS2_IS0_EEEE
libntl.so.44:_ZN3NTL21ZZ_pEX_BlockingFactorE
libntl.so.44:_ZN3NTL21from_mat_ZZ_p_crt_repERKNS_16mat_ZZ_p_crt_repERNS_3MatINS_4ZZ_pEEE
libntl.so.44:_ZN3NTL21new_fft_flipped_notabEPlPKllRKNS_12FFTPrimeInfoE
libntl.so.44:_ZN3NTL21zz_pEX_BlockingFactorE
libntl.so.44:_ZN3NTL21zz_pX_trace_crossoverE
libntl.so.44:_ZN3NTL22GetCurrentRandomStreamEv
libntl.so.44:_ZN3NTL22RandomStream_impl_copyERNS_17RandomStream_implERKS0_
libntl.so.44:_ZN3NTL22WV_BlockConstructAllocERNS_10WordVectorEll
libntl.so.44:_ZN3NTL22new_ifft_flipped_notabEPlPKllRKNS_12FFTPrimeInfoE
libntl.so.44:_ZN3NTL22quad_float_PrecisionOKERlRKd
libntl.so.44:_ZN3NTL22zz_pX_newton_crossoverE
libntl.so.44:_ZN3NTL23FFTMulTabsDeleterPolicy7deleterEPNS_10FFTMulTabsE
libntl.so.44:_ZN3NTL23RandomStream_impl_buildEPKh
libntl.so.44:_ZN3NTL23RandomStream_impl_buildERKNS_17RandomStream_implE
libntl.so.44:_ZN3NTL23plain_mul_transpose_auxERNS_3MatINS_4ZZ_pEEERKS2_S5_
libntl.so.44:_ZN3NTL23quad_float_in_place_addERNS_10quad_floatERKS0_
libntl.so.44:_ZN3NTL23quad_float_in_place_divERNS_10quad_floatERKS0_
libntl.so.44:_ZN3NTL23quad_float_in_place_mulERNS_10quad_floatERKS0_
libntl.so.44:_ZN3NTL23quad_float_in_place_subERNS_10quad_floatERKS0_
libntl.so.44:_ZN3NTL23zz_pX_bermass_crossoverE
libntl.so.44:_ZN3NTL23zz_pX_halfgcd_crossoverE
libntl.so.44:_ZN3NTL24RandomStream_impl_deleteEPNS_17RandomStream_implE
libntl.so.44:_ZN3NTL24muladd1_by_32_full_widthEPlPKlS2_lNS_19sp_ll_reduce_structEl
libntl.so.44:_ZN3NTL24quad_float_in_place_sqrtERNS_10quad_floatERd
libntl.so.44:_ZN3NTL25RandomStream_impl_get_bufERKNS_17RandomStream_implE
libntl.so.44:_ZN3NTL25mat_ZZ_p_opaque_body_moveERNS_3MatINS_4ZZ_pEEE
libntl.so.44:_ZN3NTL26quad_float_in_place_negateERNS_10quad_floatE
libntl.so.44:_ZN3NTL27MatPrime_crt_helper_deleterEPNS_19MatPrime_crt_helperE
libntl.so.44:_ZN3NTL27RandomStream_impl_get_bytesERNS_17RandomStream_implEPhll
libntl.so.44:_ZN3NTL27RandomStream_impl_set_nonceERNS_17RandomStream_implEm
libntl.so.44:_ZN3NTL27multi_modular_mul_transposeERNS_3MatINS_4ZZ_pEEERKS2_RKNS_16mat_ZZ_p_crt_repE
libntl.so.44:_ZN3NTL28MultiThreadedGenGermainPrimeERNS_2ZZEll
libntl.so.44:_ZN3NTL29RandomStream_impl_get_buf_lenERKNS_17RandomStream_implE
libntl.so.44:_ZN3NTL2RR12SetPrecisionEl
libntl.so.44:_ZN3NTL2RR18SetOutputPrecisionEl
libntl.so.44:_ZN3NTL2RR4precE
libntl.so.44:_ZN3NTL2RR5oprecE
libntl.so.44:_ZN3NTL2ZZ4zeroEv
libntl.so.44:_ZN3NTL3CRTERNS_2ZZES1_RKS0_S3_
libntl.so.44:_ZN3NTL3CRTERNS_2ZZES1_ll
libntl.so.44:_ZN3NTL3CRTERNS_3MatINS_2ZZEEERS1_RKNS0_INS_4zz_pEEE
libntl.so.44:_ZN3NTL3CRTERNS_3VecINS_2ZZEEERS1_RKNS0_INS_4zz_pEEE
libntl.so.44:_ZN3NTL3CRTERNS_3ZZXERNS_2ZZERKNS_5ZZ_pXE
libntl.so.44:_ZN3NTL3CRTERNS_3ZZXERNS_2ZZERKNS_5zz_pXE
libntl.so.44:_ZN3NTL3DDFERNS_3VecINS_4PairINS_4GF2XElEEEERKS2_l
libntl.so.44:_ZN3NTL3DDFERNS_3VecINS_4PairINS_5GF2EXElEEEERKS2_S7_l
libntl.so.44:_ZN3NTL3DDFERNS_3VecINS_4PairINS_5ZZ_pXElEEEERKS2_S7_l
libntl.so.44:_ZN3NTL3DDFERNS_3VecINS_4PairINS_5zz_pXElEEEERKS2_S7_l
libntl.so.44:_ZN3NTL3EDFERNS_3VecINS_4GF2XEEERKS1_ll
libntl.so.44:_ZN3NTL3EDFERNS_3VecINS_5GF2EXEEERKS1_S5_ll
libntl.so.44:_ZN3NTL3EDFERNS_3VecINS_5ZZ_pXEEERKS1_S5_ll
libntl.so.44:_ZN3NTL3EDFERNS_3VecINS_5zz_pXEEERKS1_S5_ll
libntl.so.44:_ZN3NTL3EDFERNS_3VecINS_6ZZ_pEXEEERKS1_S5_ll
libntl.so.44:_ZN3NTL3EDFERNS_3VecINS_6zz_pEXEEERKS1_S5_ll
libntl.so.44:_ZN3NTL3GCDERNS_3ZZXERKS0_S3_
libntl.so.44:_ZN3NTL3GCDERNS_4GF2XERKS0_S3_
libntl.so.44:_ZN3NTL3GCDERNS_5GF2EXERKS0_S3_
libntl.so.44:_ZN3NTL3GCDERNS_5ZZ_pXERKS0_S3_
libntl.so.44:_ZN3NTL3GCDERNS_5zz_pXERKS0_S3_
libntl.so.44:_ZN3NTL3GCDERNS_6ZZ_pEXERKS0_S3_
libntl.so.44:_ZN3NTL3GCDERNS_6zz_pEXERKS0_S3_
libntl.so.44:_ZN3NTL3GCDEll
libntl.so.44:_ZN3NTL3HNFERNS_3MatINS_2ZZEEERKS2_RKS1_
libntl.so.44:_ZN3NTL3IsXERKNS_3ZZXE
libntl.so.44:_ZN3NTL3IsXERKNS_4GF2XE
libntl.so.44:_ZN3NTL3IsXERKNS_5GF2EXE
libntl.so.44:_ZN3NTL3IsXERKNS_5ZZ_pXE
libntl.so.44:_ZN3NTL3IsXERKNS_5zz_pXE
libntl.so.44:_ZN3NTL3IsXERKNS_6ZZ_pEXE
libntl.so.44:_ZN3NTL3IsXERKNS_6zz_pEXE
libntl.so.44:_ZN3NTL3LLLERNS_2ZZERNS_3MatIS0_EES4_l
libntl.so.44:_ZN3NTL3LLLERNS_2ZZERNS_3MatIS0_EES4_lll
libntl.so.44:_ZN3NTL3LLLERNS_2ZZERNS_3MatIS0_EEl
libntl.so.44:_ZN3NTL3LLLERNS_2ZZERNS_3MatIS0_EElll
libntl.so.44:_ZN3NTL3Lg2ERKNS_2RRE
libntl.so.44:_ZN3NTL3VecINS_3GF2EE12SetMaxLengthEl
libntl.so.44:_ZN3NTL3VecINS_3GF2EE18FixAtCurrentLengthEv
libntl.so.44:_ZN3NTL3VecINS_3GF2EE4killEv
libntl.so.44:_ZN3NTL3VecINS_3GF2EE4moveERS2_
libntl.so.44:_ZN3NTL3VecINS_3GF2EE4swapERS2_
libntl.so.44:_ZN3NTL3VecINS_3GF2EE6appendERKS2_
libntl.so.44:_ZN3NTL3VecINS_3GF2EE6appendES1_
libntl.so.44:_ZN3NTL3VecINS_3GF2EE9FixLengthEl
libntl.so.44:_ZN3NTL3VecINS_3GF2EE9SetLengthEl
libntl.so.44:_ZN3NTL3VecINS_3GF2EE9SetLengthElS1_
libntl.so.44:_ZN3NTL3VecINS_3GF2EEaSERKS2_
libntl.so.44:_ZN3NTL3ZZX4zeroEv
libntl.so.44:_ZN3NTL3ZZX9normalizeEv
libntl.so.44:_ZN3NTL3absERNS_2RRERKS0_
libntl.so.44:_ZN3NTL3addERKNS_15mat_window_zz_pERKNS_21const_mat_window_zz_pES5_
libntl.so.44:_ZN3NTL3addERNS_2RRERKS0_S3_
libntl.so.44:_ZN3NTL3addERNS_2RRERKS0_d
libntl.so.44:_ZN3NTL3addERNS_3MatINS_2RREEERKS2_S5_
libntl.so.44:_ZN3NTL3addERNS_3MatINS_2ZZEEERKS2_S5_
libntl.so.44:_ZN3NTL3addERNS_3MatINS_3GF2EEERKS2_S5_
libntl.so.44:_ZN3NTL3addERNS_3MatINS_4GF2EEEERKS2_S5_
libntl.so.44:_ZN3NTL3addERNS_3MatINS_4ZZ_pEEERKS2_S5_
libntl.so.44:_ZN3NTL3addERNS_3MatINS_4zz_pEEERKS2_S5_
libntl.so.44:_ZN3NTL3addERNS_3MatINS_5ZZ_pEEEERKS2_S5_
libntl.so.44:_ZN3NTL3addERNS_3MatINS_5zz_pEEEERKS2_S5_
libntl.so.44:_ZN3NTL3addERNS_3VecINS_2RREEERKS2_S5_
libntl.so.44:_ZN3NTL3addERNS_3VecINS_2ZZEEERKS2_S5_
libntl.so.44:_ZN3NTL3addERNS_3VecINS_3GF2EEERKS2_S5_
libntl.so.44:_ZN3NTL3addERNS_3VecINS_4GF2EEEERKS2_S5_
libntl.so.44:_ZN3NTL3addERNS_3VecINS_4ZZ_pEEERKS2_S5_
libntl.so.44:_ZN3NTL3addERNS_3VecINS_4zz_pEEERKS2_S5_
libntl.so.44:_ZN3NTL3addERNS_3VecINS_5ZZ_pEEEERKS2_S5_
libntl.so.44:_ZN3NTL3addERNS_3VecINS_5zz_pEEEERKS2_S5_
libntl.so.44:_ZN3NTL3addERNS_3ZZXERKS0_RKNS_2ZZE
libntl.so.44:_ZN3NTL3addERNS_3ZZXERKS0_S3_
libntl.so.44:_ZN3NTL3addERNS_3ZZXERKS0_l
libntl.so.44:_ZN3NTL3addERNS_4GF2XERKS0_NS_3GF2E
libntl.so.44:_ZN3NTL3addERNS_4GF2XERKS0_S3_
libntl.so.44:_ZN3NTL3addERNS_4GF2XERKS0_l
libntl.so.44:_ZN3NTL3addERNS_4ZZ_pERKS0_l
libntl.so.44:_ZN3NTL3addERNS_5GF2EXERKS0_NS_3GF2E
libntl.so.44:_ZN3NTL3addERNS_5GF2EXERKS0_RKNS_4GF2EE
libntl.so.44:_ZN3NTL3addERNS_5GF2EXERKS0_S3_
libntl.so.44:_ZN3NTL3addERNS_5GF2EXERKS0_l
libntl.so.44:_ZN3NTL3addERNS_5ZZ_pXERKS0_RKNS_4ZZ_pE
libntl.so.44:_ZN3NTL3addERNS_5ZZ_pXERKS0_S3_
libntl.so.44:_ZN3NTL3addERNS_5ZZ_pXERKS0_l
libntl.so.44:_ZN3NTL3addERNS_5zz_pXERKS0_NS_4zz_pE
libntl.so.44:_ZN3NTL3addERNS_5zz_pXERKS0_S3_
libntl.so.44:_ZN3NTL3addERNS_6FFTRepERKS0_S3_
libntl.so.44:_ZN3NTL3addERNS_6ZZ_pEXERKS0_RKNS_4ZZ_pE
libntl.so.44:_ZN3NTL3addERNS_6ZZ_pEXERKS0_RKNS_5ZZ_pEE
libntl.so.44:_ZN3NTL3addERNS_6ZZ_pEXERKS0_S3_
libntl.so.44:_ZN3NTL3addERNS_6ZZ_pEXERKS0_l
libntl.so.44:_ZN3NTL3addERNS_6fftRepERKS0_S3_
libntl.so.44:_ZN3NTL3addERNS_6zz_pEXERKS0_RKNS_4zz_pE
libntl.so.44:_ZN3NTL3addERNS_6zz_pEXERKS0_RKNS_5zz_pEE
libntl.so.44:_ZN3NTL3addERNS_6zz_pEXERKS0_S3_
libntl.so.44:_ZN3NTL3addERNS_6zz_pEXERKS0_l
libntl.so.44:_ZN3NTL3bitEll
libntl.so.44:_ZN3NTL3cosERNS_2RRERKS0_
libntl.so.44:_ZN3NTL3degERKNS_4GF2XE
libntl.so.44:_ZN3NTL3divERNS_2RRERKS0_S3_
libntl.so.44:_ZN3NTL3divERNS_2RRERKS0_d
libntl.so.44:_ZN3NTL3divERNS_2RREdRKS0_
libntl.so.44:_ZN3NTL3divERNS_3ZZXERKS0_RKNS_2ZZE
libntl.so.44:_ZN3NTL3divERNS_3ZZXERKS0_S3_
libntl.so.44:_ZN3NTL3divERNS_3ZZXERKS0_l
libntl.so.44:_ZN3NTL3divERNS_4GF2EENS_3GF2ERKS0_
libntl.so.44:_ZN3NTL3divERNS_4GF2EERKS0_S3_
libntl.so.44:_ZN3NTL3divERNS_4GF2EElRKS0_
libntl.so.44:_ZN3NTL3divERNS_4GF2XERKS0_NS_3GF2E
libntl.so.44:_ZN3NTL3divERNS_4GF2XERKS0_RKNS_11GF2XModulusE
libntl.so.44:_ZN3NTL3divERNS_4GF2XERKS0_S3_
libntl.so.44:_ZN3NTL3divERNS_4GF2XERKS0_l
libntl.so.44:_ZN3NTL3divERNS_4ZZ_pERKS0_S3_
libntl.so.44:_ZN3NTL3divERNS_4ZZ_pERKS0_l
libntl.so.44:_ZN3NTL3divERNS_4ZZ_pElRKS0_
libntl.so.44:_ZN3NTL3divERNS_5GF2EXERKS0_NS_3GF2E
libntl.so.44:_ZN3NTL3divERNS_5GF2EXERKS0_RKNS_12GF2EXModulusE
libntl.so.44:_ZN3NTL3divERNS_5GF2EXERKS0_RKNS_4GF2EE
libntl.so.44:_ZN3NTL3divERNS_5GF2EXERKS0_S3_
libntl.so.44:_ZN3NTL3divERNS_5GF2EXERKS0_l
libntl.so.44:_ZN3NTL3divERNS_5ZZ_pEERKNS_4ZZ_pERKS0_
libntl.so.44:_ZN3NTL3divERNS_5ZZ_pEERKS0_RKNS_4ZZ_pE
libntl.so.44:_ZN3NTL3divERNS_5ZZ_pEERKS0_S3_
libntl.so.44:_ZN3NTL3divERNS_5ZZ_pEERKS0_l
libntl.so.44:_ZN3NTL3divERNS_5ZZ_pEElRKS0_
libntl.so.44:_ZN3NTL3divERNS_5ZZ_pXERKS0_RKNS_12ZZ_pXModulusE
libntl.so.44:_ZN3NTL3divERNS_5ZZ_pXERKS0_RKNS_4ZZ_pE
libntl.so.44:_ZN3NTL3divERNS_5ZZ_pXERKS0_S3_
libntl.so.44:_ZN3NTL3divERNS_5ZZ_pXERKS0_l
libntl.so.44:_ZN3NTL3divERNS_5zz_pEERKNS_4zz_pERKS0_
libntl.so.44:_ZN3NTL3divERNS_5zz_pEERKS0_RKNS_4zz_pE
libntl.so.44:_ZN3NTL3divERNS_5zz_pEERKS0_S3_
libntl.so.44:_ZN3NTL3divERNS_5zz_pEERKS0_l
libntl.so.44:_ZN3NTL3divERNS_5zz_pEElRKS0_
libntl.so.44:_ZN3NTL3divERNS_5zz_pXERKS0_NS_4zz_pE
libntl.so.44:_ZN3NTL3divERNS_5zz_pXERKS0_RKNS_12zz_pXModulusE
libntl.so.44:_ZN3NTL3divERNS_5zz_pXERKS0_S3_
libntl.so.44:_ZN3NTL3divERNS_6ZZ_pEXERKS0_RKNS_13ZZ_pEXModulusE
libntl.so.44:_ZN3NTL3divERNS_6ZZ_pEXERKS0_RKNS_4ZZ_pE
libntl.so.44:_ZN3NTL3divERNS_6ZZ_pEXERKS0_RKNS_5ZZ_pEE
libntl.so.44:_ZN3NTL3divERNS_6ZZ_pEXERKS0_S3_
libntl.so.44:_ZN3NTL3divERNS_6ZZ_pEXERKS0_l
libntl.so.44:_ZN3NTL3divERNS_6zz_pEXERKS0_RKNS_13zz_pEXModulusE
libntl.so.44:_ZN3NTL3divERNS_6zz_pEXERKS0_RKNS_4zz_pE
libntl.so.44:_ZN3NTL3divERNS_6zz_pEXERKS0_RKNS_5zz_pEE
libntl.so.44:_ZN3NTL3divERNS_6zz_pEXERKS0_S3_
libntl.so.44:_ZN3NTL3divERNS_6zz_pEXERKS0_l
libntl.so.44:_ZN3NTL3expERKNS_10quad_floatE
libntl.so.44:_ZN3NTL3expERNS_2RRERKS0_
libntl.so.44:_ZN3NTL3invENS_7ref_GF2ERNS_3MatINS_3GF2EEERKS3_
libntl.so.44:_ZN3NTL3invERNS_2RRERKS0_
libntl.so.44:_ZN3NTL3invERNS_2RRERNS_3MatIS0_EERKS3_
libntl.so.44:_ZN3NTL3invERNS_2ZZERNS_3MatIS0_EERKS3_l
libntl.so.44:_ZN3NTL3invERNS_3MatINS_2RREEERKS2_
libntl.so.44:_ZN3NTL3invERNS_3MatINS_2ZZEEERKS2_
libntl.so.44:_ZN3NTL3invERNS_3MatINS_3GF2EEERKS2_
libntl.so.44:_ZN3NTL3invERNS_3MatINS_4GF2EEEERKS2_
libntl.so.44:_ZN3NTL3invERNS_3MatINS_4ZZ_pEEERKS2_
libntl.so.44:_ZN3NTL3invERNS_3MatINS_5ZZ_pEEEERKS2_
libntl.so.44:_ZN3NTL3invERNS_3MatINS_5zz_pEEEERKS2_
libntl.so.44:_ZN3NTL3invERNS_4GF2EERKS0_
libntl.so.44:_ZN3NTL3invERNS_4GF2EERNS_3MatIS0_EERKS3_
libntl.so.44:_ZN3NTL3invERNS_4ZZ_pERKS0_
libntl.so.44:_ZN3NTL3invERNS_4ZZ_pERNS_3MatIS0_EERKS3_
libntl.so.44:_ZN3NTL3invERNS_5ZZ_pEERKS0_
libntl.so.44:_ZN3NTL3invERNS_5ZZ_pEERNS_3MatIS0_EERKS3_
libntl.so.44:_ZN3NTL3invERNS_5zz_pEERKS0_
libntl.so.44:_ZN3NTL3invERNS_5zz_pEERNS_3MatIS0_EERKS3_
libntl.so.44:_ZN3NTL3logERKNS_10quad_floatE
libntl.so.44:_ZN3NTL3logERKNS_7xdoubleE
libntl.so.44:_ZN3NTL3logERNS_2RRERKS0_
libntl.so.44:_ZN3NTL3mulEPNS_4ZZ_pEPKS0_S3_l
libntl.so.44:_ZN3NTL3mulEPNS_4zz_pEPKS0_S3_l
libntl.so.44:_ZN3NTL3mulERNS_11ZZ_pXMatrixES1_S1_
libntl.so.44:_ZN3NTL3mulERNS_11zz_pXMatrixES1_S1_
libntl.so.44:_ZN3NTL3mulERNS_16mat_ZZ_p_crt_repERKS0_S3_
libntl.so.44:_ZN3NTL3mulERNS_2RRERKS0_S3_
libntl.so.44:_ZN3NTL3mulERNS_2RRERKS0_d
libntl.so.44:_ZN3NTL3mulERNS_3MatINS_2RREEERKS2_RKS1_
libntl.so.44:_ZN3NTL3mulERNS_3MatINS_2RREEERKS2_S5_
libntl.so.44:_ZN3NTL3mulERNS_3MatINS_2RREEERKS2_d
libntl.so.44:_ZN3NTL3mulERNS_3MatINS_2ZZEEERKS2_RKS1_
libntl.so.44:_ZN3NTL3mulERNS_3MatINS_2ZZEEERKS2_S5_
libntl.so.44:_ZN3NTL3mulERNS_3MatINS_2ZZEEERKS2_l
libntl.so.44:_ZN3NTL3mulERNS_3MatINS_3GF2EEERKS2_S1_
libntl.so.44:_ZN3NTL3mulERNS_3MatINS_3GF2EEERKS2_S5_
libntl.so.44:_ZN3NTL3mulERNS_3MatINS_4GF2EEEERKS2_NS_3GF2E
libntl.so.44:_ZN3NTL3mulERNS_3MatINS_4GF2EEEERKS2_RKS1_
libntl.so.44:_ZN3NTL3mulERNS_3MatINS_4GF2EEEERKS2_S5_
libntl.so.44:_ZN3NTL3mulERNS_3MatINS_4ZZ_pEEERKS2_RKS1_
libntl.so.44:_ZN3NTL3mulERNS_3MatINS_4ZZ_pEEERKS2_S5_
libntl.so.44:_ZN3NTL3mulERNS_3MatINS_4ZZ_pEEERKS2_l
libntl.so.44:_ZN3NTL3mulERNS_3MatINS_4zz_pEEERKS2_S1_
libntl.so.44:_ZN3NTL3mulERNS_3MatINS_4zz_pEEERKS2_S5_
libntl.so.44:_ZN3NTL3mulERNS_3MatINS_4zz_pEEERKS2_l
libntl.so.44:_ZN3NTL3mulERNS_3MatINS_5ZZ_pEEEERKS2_RKNS_4ZZ_pE
libntl.so.44:_ZN3NTL3mulERNS_3MatINS_5ZZ_pEEEERKS2_RKS1_
libntl.so.44:_ZN3NTL3mulERNS_3MatINS_5ZZ_pEEEERKS2_S5_
libntl.so.44:_ZN3NTL3mulERNS_3MatINS_5ZZ_pEEEERKS2_l
libntl.so.44:_ZN3NTL3mulERNS_3MatINS_5zz_pEEEERKS2_RKNS_4zz_pE
libntl.so.44:_ZN3NTL3mulERNS_3MatINS_5zz_pEEEERKS2_RKS1_
libntl.so.44:_ZN3NTL3mulERNS_3MatINS_5zz_pEEEERKS2_S5_
libntl.so.44:_ZN3NTL3mulERNS_3MatINS_5zz_pEEEERKS2_l
libntl.so.44:_ZN3NTL3mulERNS_3VecINS_2RREEERKNS_3MatIS1_EERKS2_
libntl.so.44:_ZN3NTL3mulERNS_3VecINS_2RREEERKS2_RKNS_3MatIS1_EE
libntl.so.44:_ZN3NTL3mulERNS_3VecINS_2RREEERKS2_RKS1_
libntl.so.44:_ZN3NTL3mulERNS_3VecINS_2RREEERKS2_d
libntl.so.44:_ZN3NTL3mulERNS_3VecINS_2ZZEEERKNS_3MatIS1_EERKS2_
libntl.so.44:_ZN3NTL3mulERNS_3VecINS_2ZZEEERKS2_RKNS_3MatIS1_EE
libntl.so.44:_ZN3NTL3mulERNS_3VecINS_2ZZEEERKS2_RKS1_
libntl.so.44:_ZN3NTL3mulERNS_3VecINS_2ZZEEERKS2_l
libntl.so.44:_ZN3NTL3mulERNS_3VecINS_3GF2EEERKNS_3MatIS1_EERKS2_
libntl.so.44:_ZN3NTL3mulERNS_3VecINS_3GF2EEERKS2_RKNS_3MatIS1_EE
libntl.so.44:_ZN3NTL3mulERNS_3VecINS_3GF2EEERKS2_S1_
libntl.so.44:_ZN3NTL3mulERNS_3VecINS_4GF2EEEERKNS_3MatIS1_EERKS2_
libntl.so.44:_ZN3NTL3mulERNS_3VecINS_4GF2EEEERKS2_NS_3GF2E
libntl.so.44:_ZN3NTL3mulERNS_3VecINS_4GF2EEEERKS2_RKNS_3MatIS1_EE
libntl.so.44:_ZN3NTL3mulERNS_3VecINS_4GF2EEEERKS2_RKS1_
libntl.so.44:_ZN3NTL3mulERNS_3VecINS_4ZZ_pEEERKNS_3MatIS1_EERKS2_
libntl.so.44:_ZN3NTL3mulERNS_3VecINS_4ZZ_pEEERKS2_RKNS_3MatIS1_EE
libntl.so.44:_ZN3NTL3mulERNS_3VecINS_4ZZ_pEEERKS2_RKS1_
libntl.so.44:_ZN3NTL3mulERNS_3VecINS_4ZZ_pEEERKS2_l
libntl.so.44:_ZN3NTL3mulERNS_3VecINS_4zz_pEEERKNS_3MatIS1_EERKS2_
libntl.so.44:_ZN3NTL3mulERNS_3VecINS_4zz_pEEERKS2_RKNS_3MatIS1_EE
libntl.so.44:_ZN3NTL3mulERNS_3VecINS_4zz_pEEERKS2_S1_
libntl.so.44:_ZN3NTL3mulERNS_3VecINS_4zz_pEEERKS2_l
libntl.so.44:_ZN3NTL3mulERNS_3VecINS_5ZZ_pEEEERKNS_3MatIS1_EERKS2_
libntl.so.44:_ZN3NTL3mulERNS_3VecINS_5ZZ_pEEEERKS2_RKNS_3MatIS1_EE
libntl.so.44:_ZN3NTL3mulERNS_3VecINS_5ZZ_pEEEERKS2_RKNS_4ZZ_pE
libntl.so.44:_ZN3NTL3mulERNS_3VecINS_5ZZ_pEEEERKS2_RKS1_
libntl.so.44:_ZN3NTL3mulERNS_3VecINS_5ZZ_pEEEERKS2_l
libntl.so.44:_ZN3NTL3mulERNS_3VecINS_5zz_pEEEERKNS_3MatIS1_EERKS2_
libntl.so.44:_ZN3NTL3mulERNS_3VecINS_5zz_pEEEERKS2_RKNS_3MatIS1_EE
libntl.so.44:_ZN3NTL3mulERNS_3VecINS_5zz_pEEEERKS2_RKNS_4zz_pE
libntl.so.44:_ZN3NTL3mulERNS_3VecINS_5zz_pEEEERKS2_RKS1_
libntl.so.44:_ZN3NTL3mulERNS_3VecINS_5zz_pEEEERKS2_l
libntl.so.44:_ZN3NTL3mulERNS_3ZZXERKNS_3VecINS_4PairIS0_lEEEE
libntl.so.44:_ZN3NTL3mulERNS_3ZZXERKS0_RKNS_2ZZE
libntl.so.44:_ZN3NTL3mulERNS_3ZZXERKS0_S3_
libntl.so.44:_ZN3NTL3mulERNS_3ZZXERKS0_l
libntl.so.44:_ZN3NTL3mulERNS_4GF2XERKNS_3VecINS_4PairIS0_lEEEE
libntl.so.44:_ZN3NTL3mulERNS_4GF2XERKS0_NS_3GF2E
libntl.so.44:_ZN3NTL3mulERNS_4GF2XERKS0_S3_
libntl.so.44:_ZN3NTL3mulERNS_4GF2XERKS0_l
libntl.so.44:_ZN3NTL3mulERNS_4ZZ_pERKS0_l
libntl.so.44:_ZN3NTL3mulERNS_5GF2EXERKNS_3VecINS_4PairIS0_lEEEE
libntl.so.44:_ZN3NTL3mulERNS_5GF2EXERKS0_NS_3GF2E
libntl.so.44:_ZN3NTL3mulERNS_5GF2EXERKS0_RKNS_4GF2EE
libntl.so.44:_ZN3NTL3mulERNS_5GF2EXERKS0_S3_
libntl.so.44:_ZN3NTL3mulERNS_5GF2EXERKS0_l
libntl.so.44:_ZN3NTL3mulERNS_5ZZ_pXERKNS_3VecINS_4PairIS0_lEEEE
libntl.so.44:_ZN3NTL3mulERNS_5ZZ_pXERKS0_RKNS_4ZZ_pE
libntl.so.44:_ZN3NTL3mulERNS_5ZZ_pXERKS0_S3_
libntl.so.44:_ZN3NTL3mulERNS_5ZZ_pXERKS0_l
libntl.so.44:_ZN3NTL3mulERNS_5ZZ_pXES1_RKNS_11ZZ_pXMatrixE
libntl.so.44:_ZN3NTL3mulERNS_5zz_pXERKNS_3VecINS_4PairIS0_lEEEE
libntl.so.44:_ZN3NTL3mulERNS_5zz_pXERKS0_NS_4zz_pE
libntl.so.44:_ZN3NTL3mulERNS_5zz_pXERKS0_S3_
libntl.so.44:_ZN3NTL3mulERNS_5zz_pXES1_RKNS_11zz_pXMatrixE
libntl.so.44:_ZN3NTL3mulERNS_6FFTRepERKS0_S3_
libntl.so.44:_ZN3NTL3mulERNS_6ZZ_pEXERKNS_3VecINS_4PairIS0_lEEEE
libntl.so.44:_ZN3NTL3mulERNS_6ZZ_pEXERKS0_RKNS_4ZZ_pE
libntl.so.44:_ZN3NTL3mulERNS_6ZZ_pEXERKS0_RKNS_5ZZ_pEE
libntl.so.44:_ZN3NTL3mulERNS_6ZZ_pEXERKS0_S3_
libntl.so.44:_ZN3NTL3mulERNS_6ZZ_pEXERKS0_l
libntl.so.44:_ZN3NTL3mulERNS_6fftRepERKS0_S3_
libntl.so.44:_ZN3NTL3mulERNS_6zz_pEXERKNS_3VecINS_4PairIS0_lEEEE
libntl.so.44:_ZN3NTL3mulERNS_6zz_pEXERKS0_RKNS_4zz_pE
libntl.so.44:_ZN3NTL3mulERNS_6zz_pEXERKS0_RKNS_5zz_pEE
libntl.so.44:_ZN3NTL3mulERNS_6zz_pEXERKS0_S3_
libntl.so.44:_ZN3NTL3mulERNS_6zz_pEXERKS0_l
libntl.so.44:_ZN3NTL3powERNS_2RRERKS0_S3_
libntl.so.44:_ZN3NTL3remERNS_3ZZXERKS0_S3_
libntl.so.44:_ZN3NTL3remERNS_4GF2XERKS0_RKNS_11GF2XModulusE
libntl.so.44:_ZN3NTL3remERNS_4GF2XERKS0_S3_
libntl.so.44:_ZN3NTL3remERNS_5GF2EXERKS0_RKNS_12GF2EXModulusE
libntl.so.44:_ZN3NTL3remERNS_5GF2EXERKS0_S3_
libntl.so.44:_ZN3NTL3remERNS_5ZZ_pXERKS0_RKNS_12ZZ_pXModulusE
libntl.so.44:_ZN3NTL3remERNS_5ZZ_pXERKS0_S3_
libntl.so.44:_ZN3NTL3remERNS_5zz_pXERKS0_RKNS_12zz_pXModulusE
libntl.so.44:_ZN3NTL3remERNS_5zz_pXERKS0_S3_
libntl.so.44:_ZN3NTL3remERNS_6ZZ_pEXERKS0_RKNS_13ZZ_pEXModulusE
libntl.so.44:_ZN3NTL3remERNS_6ZZ_pEXERKS0_S3_
libntl.so.44:_ZN3NTL3remERNS_6zz_pEXERKS0_RKNS_13zz_pEXModulusE
libntl.so.44:_ZN3NTL3remERNS_6zz_pEXERKS0_S3_
libntl.so.44:_ZN3NTL3setERNS_2RRE
libntl.so.44:_ZN3NTL3setERNS_4GF2XE
libntl.so.44:_ZN3NTL3sinERNS_2RRERKS0_
libntl.so.44:_ZN3NTL3sqrERNS_2RRERKS0_
libntl.so.44:_ZN3NTL3sqrERNS_3ZZXERKS0_
libntl.so.44:_ZN3NTL3sqrERNS_4GF2XERKS0_
libntl.so.44:_ZN3NTL3sqrERNS_5GF2EXERKS0_
libntl.so.44:_ZN3NTL3sqrERNS_5ZZ_pXERKS0_
libntl.so.44:_ZN3NTL3sqrERNS_5zz_pXERKS0_
libntl.so.44:_ZN3NTL3sqrERNS_6ZZ_pEXERKS0_
libntl.so.44:_ZN3NTL3sqrERNS_6zz_pEXERKS0_
libntl.so.44:_ZN3NTL3subERKNS_15mat_window_zz_pERKNS_21const_mat_window_zz_pES5_
libntl.so.44:_ZN3NTL3subERNS_2RRERKS0_S3_
libntl.so.44:_ZN3NTL3subERNS_2RRERKS0_d
libntl.so.44:_ZN3NTL3subERNS_2RREdRKS0_
libntl.so.44:_ZN3NTL3subERNS_2ZZElRKS0_
libntl.so.44:_ZN3NTL3subERNS_3MatINS_2RREEERKS2_S5_
libntl.so.44:_ZN3NTL3subERNS_3MatINS_2ZZEEERKS2_S5_
libntl.so.44:_ZN3NTL3subERNS_3MatINS_4ZZ_pEEERKS2_S5_
libntl.so.44:_ZN3NTL3subERNS_3MatINS_4zz_pEEERKS2_S5_
libntl.so.44:_ZN3NTL3subERNS_3MatINS_5ZZ_pEEEERKS2_S5_
libntl.so.44:_ZN3NTL3subERNS_3MatINS_5zz_pEEEERKS2_S5_
libntl.so.44:_ZN3NTL3subERNS_3VecINS_2RREEERKS2_S5_
libntl.so.44:_ZN3NTL3subERNS_3VecINS_2ZZEEERKS2_S5_
libntl.so.44:_ZN3NTL3subERNS_3VecINS_4ZZ_pEEERKS2_S5_
libntl.so.44:_ZN3NTL3subERNS_3VecINS_4zz_pEEERKS2_S5_
libntl.so.44:_ZN3NTL3subERNS_3VecINS_5ZZ_pEEEERKS2_S5_
libntl.so.44:_ZN3NTL3subERNS_3VecINS_5zz_pEEEERKS2_S5_
libntl.so.44:_ZN3NTL3subERNS_3ZZXERKNS_2ZZERKS0_
libntl.so.44:_ZN3NTL3subERNS_3ZZXERKS0_RKNS_2ZZE
libntl.so.44:_ZN3NTL3subERNS_3ZZXERKS0_S3_
libntl.so.44:_ZN3NTL3subERNS_3ZZXERKS0_l
libntl.so.44:_ZN3NTL3subERNS_3ZZXElRKS0_
libntl.so.44:_ZN3NTL3subERNS_4ZZ_pERKS0_l
libntl.so.44:_ZN3NTL3subERNS_4ZZ_pElRKS0_
libntl.so.44:_ZN3NTL3subERNS_5ZZ_pXERKNS_4ZZ_pERKS0_
libntl.so.44:_ZN3NTL3subERNS_5ZZ_pXERKS0_RKNS_4ZZ_pE
libntl.so.44:_ZN3NTL3subERNS_5ZZ_pXERKS0_S3_
libntl.so.44:_ZN3NTL3subERNS_5ZZ_pXERKS0_l
libntl.so.44:_ZN3NTL3subERNS_5ZZ_pXElRKS0_
libntl.so.44:_ZN3NTL3subERNS_5zz_pXENS_4zz_pERKS0_
libntl.so.44:_ZN3NTL3subERNS_5zz_pXERKS0_NS_4zz_pE
libntl.so.44:_ZN3NTL3subERNS_5zz_pXERKS0_S3_
libntl.so.44:_ZN3NTL3subERNS_6FFTRepERKS0_S3_
libntl.so.44:_ZN3NTL3subERNS_6ZZ_pEXERKNS_4ZZ_pERKS0_
libntl.so.44:_ZN3NTL3subERNS_6ZZ_pEXERKNS_5ZZ_pEERKS0_
libntl.so.44:_ZN3NTL3subERNS_6ZZ_pEXERKS0_RKNS_4ZZ_pE
libntl.so.44:_ZN3NTL3subERNS_6ZZ_pEXERKS0_RKNS_5ZZ_pEE
libntl.so.44:_ZN3NTL3subERNS_6ZZ_pEXERKS0_S3_
libntl.so.44:_ZN3NTL3subERNS_6ZZ_pEXERKS0_l
libntl.so.44:_ZN3NTL3subERNS_6ZZ_pEXElRKS0_
libntl.so.44:_ZN3NTL3subERNS_6fftRepERKS0_S3_
libntl.so.44:_ZN3NTL3subERNS_6zz_pEXERKNS_4zz_pERKS0_
libntl.so.44:_ZN3NTL3subERNS_6zz_pEXERKNS_5zz_pEERKS0_
libntl.so.44:_ZN3NTL3subERNS_6zz_pEXERKS0_RKNS_4zz_pE
libntl.so.44:_ZN3NTL3subERNS_6zz_pEXERKS0_RKNS_5zz_pEE
libntl.so.44:_ZN3NTL3subERNS_6zz_pEXERKS0_S3_
libntl.so.44:_ZN3NTL3subERNS_6zz_pEXERKS0_l
libntl.so.44:_ZN3NTL3subERNS_6zz_pEXElRKS0_
libntl.so.44:_ZN3NTL4GF2E11cardinalityEv
libntl.so.44:_ZN3NTL4GF2E4initERKNS_4GF2XE
libntl.so.44:_ZN3NTL4GF2E4zeroEv
libntl.so.44:_ZN3NTL4GF2X12SetMaxLengthEl
libntl.so.44:_ZN3NTL4GF2X4zeroEv
libntl.so.44:_ZN3NTL4GF2X9HexOutputE
libntl.so.44:_ZN3NTL4GF2X9SetLengthEl
libntl.so.44:_ZN3NTL4GF2X9normalizeEv
libntl.so.44:_ZN3NTL4GF2XC1ERKNS_16INIT_SIZE_STRUCTEl
libntl.so.44:_ZN3NTL4GF2XC2ERKNS_16INIT_SIZE_STRUCTEl
libntl.so.44:_ZN3NTL4SetXERNS_3ZZXE
libntl.so.44:_ZN3NTL4SetXERNS_4GF2XE
libntl.so.44:_ZN3NTL4SetXERNS_5GF2EXE
libntl.so.44:_ZN3NTL4SetXERNS_5ZZ_pXE
libntl.so.44:_ZN3NTL4SetXERNS_5zz_pXE
libntl.so.44:_ZN3NTL4SetXERNS_6ZZ_pEXE
libntl.so.44:_ZN3NTL4SetXERNS_6zz_pEXE
libntl.so.44:_ZN3NTL4XGCDERNS_2ZZERNS_3ZZXES3_RKS2_S5_l
libntl.so.44:_ZN3NTL4XGCDERNS_4GF2XES1_S1_RKS0_S3_
libntl.so.44:_ZN3NTL4XGCDERNS_5GF2EXES1_S1_RKS0_S3_
libntl.so.44:_ZN3NTL4XGCDERNS_5ZZ_pXES1_S1_RKS0_S3_
libntl.so.44:_ZN3NTL4XGCDERNS_5zz_pXES1_S1_RKS0_S3_
libntl.so.44:_ZN3NTL4XGCDERNS_6ZZ_pEXES1_S1_RKS0_S3_
libntl.so.44:_ZN3NTL4XGCDERNS_6zz_pEXES1_S1_RKS0_S3_
libntl.so.44:_ZN3NTL4XGCDERlS0_S0_ll
libntl.so.44:_ZN3NTL4ZZ_p10DivHandlerE
libntl.so.44:_ZN3NTL4ZZ_p4initERKNS_2ZZE
libntl.so.44:_ZN3NTL4ZZ_p4zeroEv
libntl.so.44:_ZN3NTL4ZZ_p9DoInstallEv
libntl.so.44:_ZN3NTL4ZZ_pC1ERKNS_15INIT_VAL_STRUCTERKNS_2ZZE
libntl.so.44:_ZN3NTL4ZZ_pC1ERKNS_15INIT_VAL_STRUCTEl
libntl.so.44:_ZN3NTL4ZZ_pC2ERKNS_15INIT_VAL_STRUCTERKNS_2ZZE
libntl.so.44:_ZN3NTL4ZZ_pC2ERKNS_15INIT_VAL_STRUCTEl
libntl.so.44:_ZN3NTL4ceilERKNS_10quad_floatE
libntl.so.44:_ZN3NTL4ceilERKNS_7xdoubleE
libntl.so.44:_ZN3NTL4ceilERNS_2RRERKS0_
libntl.so.44:_ZN3NTL4convERNS_10quad_floatERKNS_2RRE
libntl.so.44:_ZN3NTL4convERNS_10quad_floatERKNS_2ZZE
libntl.so.44:_ZN3NTL4convERNS_2RRERKNS_10quad_floatE
libntl.so.44:_ZN3NTL4convERNS_2RRERKNS_2ZZE
libntl.so.44:_ZN3NTL4convERNS_2RRERKNS_7xdoubleE
libntl.so.44:_ZN3NTL4convERNS_2RRERKS0_
libntl.so.44:_ZN3NTL4convERNS_2RREd
libntl.so.44:_ZN3NTL4convERNS_2RREl
libntl.so.44:_ZN3NTL4convERNS_2RREm
libntl.so.44:_ZN3NTL4convERNS_2ZZERKNS_10quad_floatE
libntl.so.44:_ZN3NTL4convERNS_2ZZERKNS_2RRE
libntl.so.44:_ZN3NTL4convERNS_2ZZERKNS_7xdoubleE
libntl.so.44:_ZN3NTL4convERNS_3MatINS_4ZZ_pEEERKNS0_INS_2ZZEEE
libntl.so.44:_ZN3NTL4convERNS_3MatINS_4zz_pEEERKNS0_INS_2ZZEEE
libntl.so.44:_ZN3NTL4convERNS_3VecINS_3GF2EEERKNS_4GF2XE
libntl.so.44:_ZN3NTL4convERNS_3VecINS_4ZZ_pEEERKNS0_INS_2ZZEEE
libntl.so.44:_ZN3NTL4convERNS_3VecINS_4zz_pEEERKNS0_INS_2ZZEEE
libntl.so.44:_ZN3NTL4convERNS_3VecINS_4zz_pEEERKNS0_IlEE
libntl.so.44:_ZN3NTL4convERNS_3ZZXERKNS_2ZZE
libntl.so.44:_ZN3NTL4convERNS_3ZZXERKNS_3VecINS_2ZZEEE
libntl.so.44:_ZN3NTL4convERNS_3ZZXERKNS_4GF2XE
libntl.so.44:_ZN3NTL4convERNS_3ZZXERKNS_5ZZ_pXE
libntl.so.44:_ZN3NTL4convERNS_3ZZXERKNS_5zz_pXE
libntl.so.44:_ZN3NTL4convERNS_3ZZXEl
libntl.so.44:_ZN3NTL4convERNS_4GF2XENS_3GF2E
libntl.so.44:_ZN3NTL4convERNS_4GF2XERKNS_3VecINS_3GF2EEE
libntl.so.44:_ZN3NTL4convERNS_4GF2XERKNS_3ZZXE
libntl.so.44:_ZN3NTL4convERNS_4GF2XEl
libntl.so.44:_ZN3NTL4convERNS_4ZZ_pEl
libntl.so.44:_ZN3NTL4convERNS_5GF2EXENS_3GF2E
libntl.so.44:_ZN3NTL4convERNS_5GF2EXERKNS_2ZZE
libntl.so.44:_ZN3NTL4convERNS_5GF2EXERKNS_3VecINS_4GF2EEEE
libntl.so.44:_ZN3NTL4convERNS_5GF2EXERKNS_3ZZXE
libntl.so.44:_ZN3NTL4convERNS_5GF2EXERKNS_4GF2EE
libntl.so.44:_ZN3NTL4convERNS_5GF2EXERKNS_4GF2XE
libntl.so.44:_ZN3NTL4convERNS_5GF2EXEl
libntl.so.44:_ZN3NTL4convERNS_5ZZ_pXERKNS_2ZZE
libntl.so.44:_ZN3NTL4convERNS_5ZZ_pXERKNS_3VecINS_4ZZ_pEEE
libntl.so.44:_ZN3NTL4convERNS_5ZZ_pXERKNS_3ZZXE
libntl.so.44:_ZN3NTL4convERNS_5ZZ_pXERKNS_4ZZ_pE
libntl.so.44:_ZN3NTL4convERNS_5ZZ_pXEl
libntl.so.44:_ZN3NTL4convERNS_5zz_pXENS_4zz_pE
libntl.so.44:_ZN3NTL4convERNS_5zz_pXERKNS_2ZZE
libntl.so.44:_ZN3NTL4convERNS_5zz_pXERKNS_3VecINS_4zz_pEEE
libntl.so.44:_ZN3NTL4convERNS_5zz_pXERKNS_3ZZXE
libntl.so.44:_ZN3NTL4convERNS_5zz_pXEl
libntl.so.44:_ZN3NTL4convERNS_6ZZ_pEXERKNS_2ZZE
libntl.so.44:_ZN3NTL4convERNS_6ZZ_pEXERKNS_3VecINS_5ZZ_pEEEE
libntl.so.44:_ZN3NTL4convERNS_6ZZ_pEXERKNS_3ZZXE
libntl.so.44:_ZN3NTL4convERNS_6ZZ_pEXERKNS_4ZZ_pE
libntl.so.44:_ZN3NTL4convERNS_6ZZ_pEXERKNS_5ZZ_pEE
libntl.so.44:_ZN3NTL4convERNS_6ZZ_pEXERKNS_5ZZ_pXE
libntl.so.44:_ZN3NTL4convERNS_6ZZ_pEXEl
libntl.so.44:_ZN3NTL4convERNS_6zz_pEXERKNS_2ZZE
libntl.so.44:_ZN3NTL4convERNS_6zz_pEXERKNS_3VecINS_5zz_pEEEE
libntl.so.44:_ZN3NTL4convERNS_6zz_pEXERKNS_3ZZXE
libntl.so.44:_ZN3NTL4convERNS_6zz_pEXERKNS_4zz_pE
libntl.so.44:_ZN3NTL4convERNS_6zz_pEXERKNS_5zz_pEE
libntl.so.44:_ZN3NTL4convERNS_6zz_pEXERKNS_5zz_pXE
libntl.so.44:_ZN3NTL4convERNS_6zz_pEXEl
libntl.so.44:_ZN3NTL4convERNS_7xdoubleERKNS_2RRE
libntl.so.44:_ZN3NTL4convERdRKNS_2RRE
libntl.so.44:_ZN3NTL4convERdRKNS_7xdoubleE
libntl.so.44:_ZN3NTL4convERlRKNS_2RRE
libntl.so.44:_ZN3NTL4copyERNS_5ZZ_pXERKS0_ll
libntl.so.44:_ZN3NTL4copyERNS_5zz_pXERKS0_ll
libntl.so.44:_ZN3NTL4diagERNS_3MatINS_2RREEElRKS1_
libntl.so.44:_ZN3NTL4diagERNS_3MatINS_2ZZEEElRKS1_
libntl.so.44:_ZN3NTL4diagERNS_3MatINS_3GF2EEElS1_
libntl.so.44:_ZN3NTL4diagERNS_3MatINS_4GF2EEEElRKS1_
libntl.so.44:_ZN3NTL4diagERNS_3MatINS_4ZZ_pEEElRKS1_
libntl.so.44:_ZN3NTL4diagERNS_3MatINS_4zz_pEEElS1_
libntl.so.44:_ZN3NTL4diagERNS_3MatINS_5ZZ_pEEEElRKS1_
libntl.so.44:_ZN3NTL4diagERNS_3MatINS_5zz_pEEEElRKS1_
libntl.so.44:_ZN3NTL4diffERNS_3ZZXERKS0_
libntl.so.44:_ZN3NTL4diffERNS_4GF2XERKS0_
libntl.so.44:_ZN3NTL4diffERNS_5GF2EXERKS0_
libntl.so.44:_ZN3NTL4diffERNS_5ZZ_pXERKS0_
libntl.so.44:_ZN3NTL4diffERNS_5zz_pXERKS0_
libntl.so.44:_ZN3NTL4diffERNS_6ZZ_pEXERKS0_
libntl.so.44:_ZN3NTL4diffERNS_6zz_pEXERKS0_
libntl.so.44:_ZN3NTL4evalERNS_3VecINS_4GF2EEEERKNS_5GF2EXERKS2_
libntl.so.44:_ZN3NTL4evalERNS_3VecINS_4ZZ_pEEERKNS_5ZZ_pXERKS2_
libntl.so.44:_ZN3NTL4evalERNS_3VecINS_4zz_pEEERKNS_5zz_pXERKS2_
libntl.so.44:_ZN3NTL4evalERNS_3VecINS_5ZZ_pEEEERKNS_6ZZ_pEXERKS2_
libntl.so.44:_ZN3NTL4evalERNS_3VecINS_5zz_pEEEERKNS_6zz_pEXERKS2_
libntl.so.44:_ZN3NTL4evalERNS_4GF2EERKNS_5GF2EXERKS0_
libntl.so.44:_ZN3NTL4evalERNS_4ZZ_pERKNS_5ZZ_pXERKS0_
libntl.so.44:_ZN3NTL4evalERNS_4zz_pERKNS_5zz_pXES0_
libntl.so.44:_ZN3NTL4evalERNS_5ZZ_pEERKNS_6ZZ_pEXERKS0_
libntl.so.44:_ZN3NTL4evalERNS_5zz_pEERKNS_6zz_pEXERKS0_
libntl.so.44:_ZN3NTL4fabsERKNS_10quad_floatE
libntl.so.44:_ZN3NTL4fabsERKNS_7xdoubleE
libntl.so.44:_ZN3NTL4signERKNS_2RRE
libntl.so.44:_ZN3NTL4signERKNS_7xdoubleE
libntl.so.44:_ZN3NTL4sqrtERKNS_10quad_floatE
libntl.so.44:_ZN3NTL4sqrtERKNS_7xdoubleE
libntl.so.44:_ZN3NTL4xexpEd
libntl.so.44:_ZN3NTL4zz_p11UserFFTInitEl
libntl.so.44:_ZN3NTL4zz_p4initEll
libntl.so.44:_ZN3NTL4zz_p7FFTInitEl
libntl.so.44:_ZN3NTL5GF2EX4zeroEv
libntl.so.44:_ZN3NTL5GF2EX9normalizeEv
libntl.so.44:_ZN3NTL5IsOneERKNS_2RRE
libntl.so.44:_ZN3NTL5IsOneERKNS_3ZZXE
libntl.so.44:_ZN3NTL5IsOneERKNS_4GF2XE
libntl.so.44:_ZN3NTL5IsOneERKNS_5GF2EXE
libntl.so.44:_ZN3NTL5IsOneERKNS_5ZZ_pXE
libntl.so.44:_ZN3NTL5IsOneERKNS_5zz_pXE
libntl.so.44:_ZN3NTL5IsOneERKNS_6ZZ_pEXE
libntl.so.44:_ZN3NTL5IsOneERKNS_6zz_pEXE
libntl.so.44:_ZN3NTL5SSMulERNS_3ZZXERKS0_S3_
libntl.so.44:_ZN3NTL5SSMulERNS_5ZZ_pXERKS0_S3_
libntl.so.44:_ZN3NTL5SSSqrERNS_3ZZXERKS0_
libntl.so.44:_ZN3NTL5SSSqrERNS_5ZZ_pXERKS0_
libntl.so.44:_ZN3NTL5ZZVec4killEv
libntl.so.44:_ZN3NTL5ZZVec7SetSizeEll
libntl.so.44:_ZN3NTL5ZZVecC1ERKS0_
libntl.so.44:_ZN3NTL5ZZVecC2ERKS0_
libntl.so.44:_ZN3NTL5ZZVecaSERKS0_
libntl.so.44:_ZN3NTL5ZZ_pE11cardinalityEv
libntl.so.44:_ZN3NTL5ZZ_pE4initERKNS_5ZZ_pXE
libntl.so.44:_ZN3NTL5ZZ_pE4zeroEv
libntl.so.44:_ZN3NTL5ZZ_pX4zeroEv
libntl.so.44:_ZN3NTL5ZZ_pX9normalizeEv
libntl.so.44:_ZN3NTL5ZZ_pXaSERKNS_4ZZ_pE
libntl.so.44:_ZN3NTL5ZZ_pXaSEl
libntl.so.44:_ZN3NTL5buildERNS_11GF2XModulusERKNS_4GF2XE
libntl.so.44:_ZN3NTL5buildERNS_12GF2EXModulusERKNS_5GF2EXE
libntl.so.44:_ZN3NTL5buildERNS_12GF2XArgumentERKNS_4GF2XERKNS_11GF2XModulusEl
libntl.so.44:_ZN3NTL5buildERNS_12ZZ_pXModulusERKNS_5ZZ_pXE
libntl.so.44:_ZN3NTL5buildERNS_12zz_pXModulusERKNS_5zz_pXE
libntl.so.44:_ZN3NTL5buildERNS_13GF2EXArgumentERKNS_5GF2EXERKNS_12GF2EXModulusEl
libntl.so.44:_ZN3NTL5buildERNS_13ZZ_pEXModulusERKNS_6ZZ_pEXE
libntl.so.44:_ZN3NTL5buildERNS_13ZZ_pXArgumentERKNS_5ZZ_pXERKNS_12ZZ_pXModulusEl
libntl.so.44:_ZN3NTL5buildERNS_13zz_pEXModulusERKNS_6zz_pEXE
libntl.so.44:_ZN3NTL5buildERNS_13zz_pXArgumentERKNS_5zz_pXERKNS_12zz_pXModulusEl
libntl.so.44:_ZN3NTL5buildERNS_14ZZ_pEXArgumentERKNS_6ZZ_pEXERKNS_13ZZ_pEXModulusEl
libntl.so.44:_ZN3NTL5buildERNS_14zz_pEXArgumentERKNS_6zz_pEXERKNS_13zz_pEXModulusEl
libntl.so.44:_ZN3NTL5buildERNS_15ZZ_pXMultiplierERKNS_5ZZ_pXERKNS_12ZZ_pXModulusE
libntl.so.44:_ZN3NTL5buildERNS_15zz_pXMultiplierERKNS_5zz_pXERKNS_12zz_pXModulusE
libntl.so.44:_ZN3NTL5buildERNS_16ZZ_pXNewArgumentERKNS_5ZZ_pXERKNS_12ZZ_pXModulusEl
libntl.so.44:_ZN3NTL5buildERNS_16zz_pXNewArgumentERKNS_5zz_pXERKNS_12zz_pXModulusEl
libntl.so.44:_ZN3NTL5buildERNS_19GF2XTransMultiplierERKNS_4GF2XERKNS_11GF2XModulusE
libntl.so.44:_ZN3NTL5buildERNS_19MatPrime_crt_helperERKNS_2ZZE
libntl.so.44:_ZN3NTL5buildERNS_20GF2EXTransMultiplierERKNS_5GF2EXERKNS_12GF2EXModulusE
libntl.so.44:_ZN3NTL5buildERNS_21ZZ_pEXTransMultiplierERKNS_6ZZ_pEXERKNS_13ZZ_pEXModulusE
libntl.so.44:_ZN3NTL5buildERNS_21zz_pEXTransMultiplierERKNS_6zz_pEXERKNS_13zz_pEXModulusE
libntl.so.44:_ZN3NTL5clearERKNS_15mat_window_zz_pE
libntl.so.44:_ZN3NTL5clearERNS_2RRE
libntl.so.44:_ZN3NTL5clearERNS_3MatINS_2RREEE
libntl.so.44:_ZN3NTL5clearERNS_3MatINS_2ZZEEE
libntl.so.44:_ZN3NTL5clearERNS_3MatINS_3GF2EEE
libntl.so.44:_ZN3NTL5clearERNS_3MatINS_4GF2EEEE
libntl.so.44:_ZN3NTL5clearERNS_3MatINS_4ZZ_pEEE
libntl.so.44:_ZN3NTL5clearERNS_3MatINS_4zz_pEEE
libntl.so.44:_ZN3NTL5clearERNS_3MatINS_5ZZ_pEEEE
libntl.so.44:_ZN3NTL5clearERNS_3MatINS_5zz_pEEEE
libntl.so.44:_ZN3NTL5clearERNS_3VecINS_2RREEE
libntl.so.44:_ZN3NTL5clearERNS_3VecINS_2ZZEEE
libntl.so.44:_ZN3NTL5clearERNS_3VecINS_3GF2EEE
libntl.so.44:_ZN3NTL5clearERNS_3VecINS_4GF2EEEE
libntl.so.44:_ZN3NTL5clearERNS_3VecINS_4ZZ_pEEE
libntl.so.44:_ZN3NTL5clearERNS_3VecINS_4zz_pEEE
libntl.so.44:_ZN3NTL5clearERNS_3VecINS_5ZZ_pEEEE
libntl.so.44:_ZN3NTL5clearERNS_3VecINS_5zz_pEEEE
libntl.so.44:_ZN3NTL5coeffERKNS_3ZZXEl
libntl.so.44:_ZN3NTL5coeffERKNS_4GF2XEl
libntl.so.44:_ZN3NTL5coeffERKNS_5GF2EXEl
libntl.so.44:_ZN3NTL5coeffERKNS_5ZZ_pXEl
libntl.so.44:_ZN3NTL5coeffERKNS_5zz_pXEl
libntl.so.44:_ZN3NTL5coeffERKNS_6ZZ_pEXEl
libntl.so.44:_ZN3NTL5coeffERKNS_6zz_pEXEl
libntl.so.44:_ZN3NTL5div21ERNS_5ZZ_pXERKS0_RKNS_12ZZ_pXModulusE
libntl.so.44:_ZN3NTL5div21ERNS_5zz_pXERKS0_RKNS_12zz_pXModulusE
libntl.so.44:_ZN3NTL5expm1ERNS_2RRERKS0_
libntl.so.44:_ZN3NTL5floorERKNS_10quad_floatE
libntl.so.44:_ZN3NTL5floorERKNS_7xdoubleE
libntl.so.44:_ZN3NTL5floorERNS_2RRERKS0_
libntl.so.44:_ZN3NTL5gaussERNS_3MatINS_3GF2EEE
libntl.so.44:_ZN3NTL5gaussERNS_3MatINS_3GF2EEEl
libntl.so.44:_ZN3NTL5gaussERNS_3MatINS_4GF2EEEE
libntl.so.44:_ZN3NTL5gaussERNS_3MatINS_4GF2EEEEl
libntl.so.44:_ZN3NTL5gaussERNS_3MatINS_4ZZ_pEEE
libntl.so.44:_ZN3NTL5gaussERNS_3MatINS_4ZZ_pEEEl
libntl.so.44:_ZN3NTL5gaussERNS_3MatINS_4zz_pEEE
libntl.so.44:_ZN3NTL5gaussERNS_3MatINS_4zz_pEEEl
libntl.so.44:_ZN3NTL5gaussERNS_3MatINS_5ZZ_pEEEE
libntl.so.44:_ZN3NTL5gaussERNS_3MatINS_5ZZ_pEEEEl
libntl.so.44:_ZN3NTL5gaussERNS_3MatINS_5zz_pEEEE
libntl.so.44:_ZN3NTL5gaussERNS_3MatINS_5zz_pEEEEl
libntl.so.44:_ZN3NTL5identERNS_3MatINS_2RREEEl
libntl.so.44:_ZN3NTL5identERNS_3MatINS_2ZZEEEl
libntl.so.44:_ZN3NTL5identERNS_3MatINS_3GF2EEEl
libntl.so.44:_ZN3NTL5identERNS_3MatINS_4GF2EEEEl
libntl.so.44:_ZN3NTL5identERNS_3MatINS_4ZZ_pEEEl
libntl.so.44:_ZN3NTL5identERNS_3MatINS_4zz_pEEEl
libntl.so.44:_ZN3NTL5identERNS_3MatINS_5ZZ_pEEEEl
libntl.so.44:_ZN3NTL5identERNS_3MatINS_5zz_pEEEEl
libntl.so.44:_ZN3NTL5imageERNS_2ZZERNS_3MatIS0_EES4_l
libntl.so.44:_ZN3NTL5imageERNS_2ZZERNS_3MatIS0_EEl
libntl.so.44:_ZN3NTL5imageERNS_3MatINS_3GF2EEERKS2_
libntl.so.44:_ZN3NTL5imageERNS_3MatINS_4GF2EEEERKS2_
libntl.so.44:_ZN3NTL5imageERNS_3MatINS_4ZZ_pEEERKS2_
libntl.so.44:_ZN3NTL5imageERNS_3MatINS_4zz_pEEERKS2_
libntl.so.44:_ZN3NTL5imageERNS_3MatINS_5ZZ_pEEEERKS2_
libntl.so.44:_ZN3NTL5imageERNS_3MatINS_5zz_pEEEERKS2_
libntl.so.44:_ZN3NTL5ldexpERKNS_10quad_floatEl
libntl.so.44:_ZN3NTL5log10ERNS_2RRERKS0_
libntl.so.44:_ZN3NTL5log1pERNS_2RRERKS0_
libntl.so.44:_ZN3NTL5powerENS_3GF2El
libntl.so.44:_ZN3NTL5powerERNS_10quad_floatERKS0_l
libntl.so.44:_ZN3NTL5powerERNS_2RRERKS0_l
libntl.so.44:_ZN3NTL5powerERNS_3MatINS_2RREEERKS2_RKNS_2ZZE
libntl.so.44:_ZN3NTL5powerERNS_3MatINS_2ZZEEERKS2_RKS1_
libntl.so.44:_ZN3NTL5powerERNS_3MatINS_3GF2EEERKS2_RKNS_2ZZE
libntl.so.44:_ZN3NTL5powerERNS_3MatINS_4GF2EEEERKS2_RKNS_2ZZE
libntl.so.44:_ZN3NTL5powerERNS_3MatINS_4ZZ_pEEERKS2_RKNS_2ZZE
libntl.so.44:_ZN3NTL5powerERNS_3MatINS_5ZZ_pEEEERKS2_RKNS_2ZZE
libntl.so.44:_ZN3NTL5powerERNS_3MatINS_5zz_pEEEERKS2_RKNS_2ZZE
libntl.so.44:_ZN3NTL5powerERNS_4GF2XERKS0_l
libntl.so.44:_ZN3NTL5powerERNS_5GF2EXERKS0_l
libntl.so.44:_ZN3NTL5powerERNS_5ZZ_pXERKS0_l
libntl.so.44:_ZN3NTL5powerERNS_5zz_pXERKS0_l
libntl.so.44:_ZN3NTL5powerERNS_6ZZ_pEXERKS0_l
libntl.so.44:_ZN3NTL5powerERNS_6zz_pEXERKS0_l
libntl.so.44:_ZN3NTL5powerERNS_7xdoubleERKS0_RKNS_2ZZE
libntl.so.44:_ZN3NTL5powerERNS_7xdoubleERKS0_l
libntl.so.44:_ZN3NTL5rem21ERNS_5ZZ_pXERKS0_RKNS_12ZZ_pXModulusE
libntl.so.44:_ZN3NTL5rem21ERNS_5zz_pXERKS0_RKNS_12zz_pXModulusE
libntl.so.44:_ZN3NTL5roundERNS_2RRERKS0_
libntl.so.44:_ZN3NTL5shiftERNS_3VecINS_3GF2EEERKS2_l
libntl.so.44:_ZN3NTL5solveENS_7ref_GF2ERKNS_3MatINS_3GF2EEERNS_3VecIS2_EERKS7_
libntl.so.44:_ZN3NTL5solveENS_7ref_GF2ERNS_3VecINS_3GF2EEERKNS_3MatIS2_EERKS3_
libntl.so.44:_ZN3NTL5solveERNS_2RRERNS_3VecIS0_EERKNS_3MatIS0_EERKS3_
libntl.so.44:_ZN3NTL5solveERNS_2ZZERNS_3VecIS0_EERKNS_3MatIS0_EERKS3_l
libntl.so.44:_ZN3NTL5solveERNS_4GF2EERKNS_3MatIS0_EERNS_3VecIS0_EERKS7_
libntl.so.44:_ZN3NTL5solveERNS_4GF2EERNS_3VecIS0_EERKNS_3MatIS0_EERKS3_
libntl.so.44:_ZN3NTL5solveERNS_4ZZ_pERKNS_3MatIS0_EERNS_3VecIS0_EERKS7_
libntl.so.44:_ZN3NTL5solveERNS_4ZZ_pERNS_3VecIS0_EERKNS_3MatIS0_EERKS3_
libntl.so.44:_ZN3NTL5solveERNS_5ZZ_pEERKNS_3MatIS0_EERNS_3VecIS0_EERKS7_
libntl.so.44:_ZN3NTL5solveERNS_5ZZ_pEERNS_3VecIS0_EERKNS_3MatIS0_EERKS3_
libntl.so.44:_ZN3NTL5solveERNS_5zz_pEERKNS_3MatIS0_EERNS_3VecIS0_EERKS7_
libntl.so.44:_ZN3NTL5solveERNS_5zz_pEERNS_3VecIS0_EERKNS_3MatIS0_EERKS3_
libntl.so.44:_ZN3NTL5splitERNS_6ZZ_pEXES1_S1_S1_RKS0_S3_RKNS_3VecINS_5ZZ_pEEEEll
libntl.so.44:_ZN3NTL5splitERNS_6zz_pEXES1_S1_S1_RKS0_S3_RKNS_3VecINS_5zz_pEEEEll
libntl.so.44:_ZN3NTL5truncERKNS_10quad_floatE
libntl.so.44:_ZN3NTL5truncERKNS_7xdoubleE
libntl.so.44:_ZN3NTL5truncERNS_2RRERKS0_
libntl.so.44:_ZN3NTL5truncERNS_3ZZXERKS0_l
libntl.so.44:_ZN3NTL5truncERNS_4GF2XERKS0_l
libntl.so.44:_ZN3NTL5truncERNS_5GF2EXERKS0_l
libntl.so.44:_ZN3NTL5truncERNS_5ZZ_pXERKS0_l
libntl.so.44:_ZN3NTL5truncERNS_5zz_pXERKS0_l
libntl.so.44:_ZN3NTL5truncERNS_6ZZ_pEXERKS0_l
libntl.so.44:_ZN3NTL5truncERNS_6zz_pEXERKS0_l
libntl.so.44:_ZN3NTL5zz_pE11cardinalityEv
libntl.so.44:_ZN3NTL5zz_pE4initERKNS_5zz_pXE
libntl.so.44:_ZN3NTL5zz_pE4zeroEv
libntl.so.44:_ZN3NTL5zz_pX4zeroEv
libntl.so.44:_ZN3NTL5zz_pX9normalizeEv
libntl.so.44:_ZN3NTL6AddModERNS_2ZZERKS0_lS3_
libntl.so.44:_ZN3NTL6BKZ_FPERNS_3MatINS_2ZZEEES3_dllPFlRKNS_3VecIS1_EEEl
libntl.so.44:_ZN3NTL6BKZ_FPERNS_3MatINS_2ZZEEEdllPFlRKNS_3VecIS1_EEEl
libntl.so.44:_ZN3NTL6BKZ_QPERNS_3MatINS_2ZZEEES3_dllPFlRKNS_3VecIS1_EEEl
libntl.so.44:_ZN3NTL6BKZ_QPERNS_3MatINS_2ZZEEEdllPFlRKNS_3VecIS1_EEEl
libntl.so.44:_ZN3NTL6BKZ_RRERNS_3MatINS_2ZZEEES3_dllPFlRKNS_3VecIS1_EEEl
libntl.so.44:_ZN3NTL6BKZ_RRERNS_3MatINS_2ZZEEEdllPFlRKNS_3VecIS1_EEEl
libntl.so.44:_ZN3NTL6BKZ_XDERNS_3MatINS_2ZZEEES3_dllPFlRKNS_3VecIS1_EEEl
libntl.so.44:_ZN3NTL6BKZ_XDERNS_3MatINS_2ZZEEEdllPFlRKNS_3VecIS1_EEEl
libntl.so.44:_ZN3NTL6DivRemERNS_3ZZXES1_RKS0_S3_
libntl.so.44:_ZN3NTL6DivRemERNS_4GF2XES1_RKS0_RKNS_11GF2XModulusE
libntl.so.44:_ZN3NTL6DivRemERNS_4GF2XES1_RKS0_S3_
libntl.so.44:_ZN3NTL6DivRemERNS_5GF2EXES1_RKS0_RKNS_12GF2EXModulusE
libntl.so.44:_ZN3NTL6DivRemERNS_5GF2EXES1_RKS0_S3_
libntl.so.44:_ZN3NTL6DivRemERNS_5ZZ_pXES1_RKS0_RKNS_12ZZ_pXModulusE
libntl.so.44:_ZN3NTL6DivRemERNS_5ZZ_pXES1_RKS0_S3_
libntl.so.44:_ZN3NTL6DivRemERNS_5zz_pXES1_RKS0_RKNS_12zz_pXModulusE
libntl.so.44:_ZN3NTL6DivRemERNS_5zz_pXES1_RKS0_S3_
libntl.so.44:_ZN3NTL6DivRemERNS_6ZZ_pEXES1_RKS0_RKNS_13ZZ_pEXModulusE
libntl.so.44:_ZN3NTL6DivRemERNS_6ZZ_pEXES1_RKS0_S3_
libntl.so.44:_ZN3NTL6DivRemERNS_6zz_pEXES1_RKS0_RKNS_13zz_pEXModulusE
libntl.so.44:_ZN3NTL6DivRemERNS_6zz_pEXES1_RKS0_S3_
libntl.so.44:_ZN3NTL6FFTDivERNS_5ZZ_pXERKS0_S3_
libntl.so.44:_ZN3NTL6FFTDivERNS_5zz_pXERKS0_S3_
libntl.so.44:_ZN3NTL6FFTMulERNS_5ZZ_pXERKS0_S3_
libntl.so.44:_ZN3NTL6FFTMulERNS_5zz_pXERKS0_S3_
libntl.so.44:_ZN3NTL6FFTRemERNS_5ZZ_pXERKS0_S3_
libntl.so.44:_ZN3NTL6FFTRemERNS_5zz_pXERKS0_S3_
libntl.so.44:_ZN3NTL6FFTRep7SetSizeEl
libntl.so.44:_ZN3NTL6FFTRep9DoSetSizeEll
libntl.so.44:_ZN3NTL6FFTRepaSERKS0_
libntl.so.44:_ZN3NTL6FFTSqrERNS_5ZZ_pXERKS0_
libntl.so.44:_ZN3NTL6FFTSqrERNS_5zz_pXERKS0_
libntl.so.44:_ZN3NTL6HomMulERNS_3ZZXERKS0_S3_
libntl.so.44:_ZN3NTL6HomSqrERNS_3ZZXERKS0_
libntl.so.44:_ZN3NTL6InvModERNS_2ZZERKS0_S3_
libntl.so.44:_ZN3NTL6InvModERNS_4GF2XERKS0_S3_
libntl.so.44:_ZN3NTL6InvModERNS_5GF2EXERKS0_S3_
libntl.so.44:_ZN3NTL6InvModERNS_5ZZ_pXERKS0_S3_
libntl.so.44:_ZN3NTL6InvModERNS_5zz_pXERKS0_S3_
libntl.so.44:_ZN3NTL6InvModERNS_6ZZ_pEXERKS0_S3_
libntl.so.44:_ZN3NTL6InvModERNS_6zz_pEXERKS0_S3_
libntl.so.44:_ZN3NTL6InvModEll
libntl.so.44:_ZN3NTL6IsDiagERKNS_3MatINS_2RREEElRKS1_
libntl.so.44:_ZN3NTL6IsDiagERKNS_3MatINS_2ZZEEElRKS1_
libntl.so.44:_ZN3NTL6IsDiagERKNS_3MatINS_3GF2EEElS1_
libntl.so.44:_ZN3NTL6IsDiagERKNS_3MatINS_4GF2EEEElRKS1_
libntl.so.44:_ZN3NTL6IsDiagERKNS_3MatINS_4ZZ_pEEElRKS1_
libntl.so.44:_ZN3NTL6IsDiagERKNS_3MatINS_4zz_pEEElS1_
libntl.so.44:_ZN3NTL6IsDiagERKNS_3MatINS_5ZZ_pEEEElRKS1_
libntl.so.44:_ZN3NTL6IsDiagERKNS_3MatINS_5zz_pEEEElRKS1_
libntl.so.44:_ZN3NTL6IsZeroERKNS_2RRE
libntl.so.44:_ZN3NTL6IsZeroERKNS_3MatINS_2RREEE
libntl.so.44:_ZN3NTL6IsZeroERKNS_3MatINS_2ZZEEE
libntl.so.44:_ZN3NTL6IsZeroERKNS_3MatINS_3GF2EEE
libntl.so.44:_ZN3NTL6IsZeroERKNS_3MatINS_4GF2EEEE
libntl.so.44:_ZN3NTL6IsZeroERKNS_3MatINS_4ZZ_pEEE
libntl.so.44:_ZN3NTL6IsZeroERKNS_3MatINS_4zz_pEEE
libntl.so.44:_ZN3NTL6IsZeroERKNS_3MatINS_5ZZ_pEEEE
libntl.so.44:_ZN3NTL6IsZeroERKNS_3MatINS_5zz_pEEEE
libntl.so.44:_ZN3NTL6IsZeroERKNS_3VecINS_2RREEE
libntl.so.44:_ZN3NTL6IsZeroERKNS_3VecINS_2ZZEEE
libntl.so.44:_ZN3NTL6IsZeroERKNS_3VecINS_3GF2EEE
libntl.so.44:_ZN3NTL6IsZeroERKNS_3VecINS_4GF2EEEE
libntl.so.44:_ZN3NTL6IsZeroERKNS_3VecINS_4ZZ_pEEE
libntl.so.44:_ZN3NTL6IsZeroERKNS_3VecINS_4zz_pEEE
libntl.so.44:_ZN3NTL6IsZeroERKNS_3VecINS_5ZZ_pEEEE
libntl.so.44:_ZN3NTL6IsZeroERKNS_3VecINS_5zz_pEEEE
libntl.so.44:_ZN3NTL6IsZeroERKNS_3ZZXE
libntl.so.44:_ZN3NTL6IsZeroERKNS_4GF2XE
libntl.so.44:_ZN3NTL6IsZeroERKNS_5GF2EXE
libntl.so.44:_ZN3NTL6IsZeroERKNS_5ZZ_pXE
libntl.so.44:_ZN3NTL6IsZeroERKNS_5zz_pXE
libntl.so.44:_ZN3NTL6IsZeroERKNS_6ZZ_pEXE
libntl.so.44:_ZN3NTL6IsZeroERKNS_6zz_pEXE
libntl.so.44:_ZN3NTL6JacobiERKNS_2ZZES2_
libntl.so.44:_ZN3NTL6KarAddEPNS_4zz_pEPKS0_l
libntl.so.44:_ZN3NTL6KarFixEPNS_4zz_pEPKS0_ll
libntl.so.44:_ZN3NTL6KarMulEPNS_4zz_pEPKS0_lS3_lS1_
libntl.so.44:_ZN3NTL6KarMulERNS_3ZZXERKS0_S3_
libntl.so.44:_ZN3NTL6KarMulERNS_5ZZ_pXERKS0_S3_
libntl.so.44:_ZN3NTL6KarSqrEPNS_4zz_pEPKS0_lS1_
libntl.so.44:_ZN3NTL6KarSqrERNS_3ZZXERKS0_
libntl.so.44:_ZN3NTL6KarSqrERNS_5ZZ_pXERKS0_
libntl.so.44:_ZN3NTL6KarSubEPNS_4zz_pEPKS0_l
libntl.so.44:_ZN3NTL6LLL_FPERNS_3MatINS_2ZZEEES3_dlPFlRKNS_3VecIS1_EEEl
libntl.so.44:_ZN3NTL6LLL_FPERNS_3MatINS_2ZZEEEdlPFlRKNS_3VecIS1_EEEl
libntl.so.44:_ZN3NTL6LLL_QPERNS_3MatINS_2ZZEEES3_dlPFlRKNS_3VecIS1_EEEl
libntl.so.44:_ZN3NTL6LLL_QPERNS_3MatINS_2ZZEEEdlPFlRKNS_3VecIS1_EEEl
libntl.so.44:_ZN3NTL6LLL_RRERNS_3MatINS_2ZZEEES3_dlPFlRKNS_3VecIS1_EEEl
libntl.so.44:_ZN3NTL6LLL_RRERNS_3MatINS_2ZZEEEdlPFlRKNS_3VecIS1_EEEl
libntl.so.44:_ZN3NTL6LLL_XDERNS_3MatINS_2ZZEEES3_dlPFlRKNS_3VecIS1_EEEl
libntl.so.44:_ZN3NTL6LLL_XDERNS_3MatINS_2ZZEEEdlPFlRKNS_3VecIS1_EEEl
libntl.so.44:_ZN3NTL6MakeRRERNS_2RRERKNS_2ZZEl
libntl.so.44:_ZN3NTL6MulAddERNS_7xdoubleERKS0_S3_S3_
libntl.so.44:_ZN3NTL6MulByXERNS_4GF2XERKS0_
libntl.so.44:_ZN3NTL6MulModERNS_3ZZXERKS0_S3_S3_
libntl.so.44:_ZN3NTL6MulModERNS_4GF2XERKS0_S3_RKNS_11GF2XModulusE
libntl.so.44:_ZN3NTL6MulModERNS_4GF2XERKS0_S3_S3_
libntl.so.44:_ZN3NTL6MulModERNS_5GF2EXERKS0_S3_RKNS_12GF2EXModulusE
libntl.so.44:_ZN3NTL6MulModERNS_5GF2EXERKS0_S3_S3_
libntl.so.44:_ZN3NTL6MulModERNS_5ZZ_pXERKS0_RKNS_15ZZ_pXMultiplierERKNS_12ZZ_pXModulusE
libntl.so.44:_ZN3NTL6MulModERNS_5ZZ_pXERKS0_S3_RKNS_12ZZ_pXModulusE
libntl.so.44:_ZN3NTL6MulModERNS_5ZZ_pXERKS0_S3_S3_
libntl.so.44:_ZN3NTL6MulModERNS_5zz_pXERKS0_RKNS_15zz_pXMultiplierERKNS_12zz_pXModulusE
libntl.so.44:_ZN3NTL6MulModERNS_5zz_pXERKS0_S3_RKNS_12zz_pXModulusE
libntl.so.44:_ZN3NTL6MulModERNS_5zz_pXERKS0_S3_S3_
libntl.so.44:_ZN3NTL6MulModERNS_6ZZ_pEXERKS0_S3_RKNS_13ZZ_pEXModulusE
libntl.so.44:_ZN3NTL6MulModERNS_6ZZ_pEXERKS0_S3_S3_
libntl.so.44:_ZN3NTL6MulModERNS_6zz_pEXERKS0_S3_RKNS_13zz_pEXModulusE
libntl.so.44:_ZN3NTL6MulModERNS_6zz_pEXERKS0_S3_S3_
libntl.so.44:_ZN3NTL6MulSubERNS_7xdoubleERKS0_S3_S3_
libntl.so.44:_ZN3NTL6NewDDFERNS_3VecINS_4PairINS_5GF2EXElEEEERKS2_S7_l
libntl.so.44:_ZN3NTL6NewDDFERNS_3VecINS_4PairINS_5ZZ_pXElEEEERKS2_S7_l
libntl.so.44:_ZN3NTL6NewDDFERNS_3VecINS_4PairINS_5zz_pXElEEEERKS2_S7_l
libntl.so.44:_ZN3NTL6NewDDFERNS_3VecINS_4PairINS_6ZZ_pEXElEEEERKS2_S7_l
libntl.so.44:_ZN3NTL6NewDDFERNS_3VecINS_4PairINS_6zz_pEXElEEEERKS2_S7_l
libntl.so.44:_ZN3NTL6OldGCDERNS_4GF2XERKS0_S3_
libntl.so.44:_ZN3NTL6OldMulERNS_4GF2XERKS0_S3_
libntl.so.44:_ZN3NTL6RecEDFERNS_3VecINS_6ZZ_pEXEEERKS1_S5_ll
libntl.so.44:_ZN3NTL6RecEDFERNS_3VecINS_6zz_pEXEEERKS1_S5_ll
libntl.so.44:_ZN3NTL6SqrModERNS_3ZZXERKS0_S3_
libntl.so.44:_ZN3NTL6SqrModERNS_4GF2XERKS0_RKNS_11GF2XModulusE
libntl.so.44:_ZN3NTL6SqrModERNS_4GF2XERKS0_S3_
libntl.so.44:_ZN3NTL6SqrModERNS_5GF2EXERKS0_RKNS_12GF2EXModulusE
libntl.so.44:_ZN3NTL6SqrModERNS_5GF2EXERKS0_S3_
libntl.so.44:_ZN3NTL6SqrModERNS_5ZZ_pXERKS0_RKNS_12ZZ_pXModulusE
libntl.so.44:_ZN3NTL6SqrModERNS_5ZZ_pXERKS0_S3_
libntl.so.44:_ZN3NTL6SqrModERNS_5zz_pXERKS0_RKNS_12zz_pXModulusE
libntl.so.44:_ZN3NTL6SqrModERNS_5zz_pXERKS0_S3_
libntl.so.44:_ZN3NTL6SqrModERNS_6ZZ_pEXERKS0_RKNS_13ZZ_pEXModulusE
libntl.so.44:_ZN3NTL6SqrModERNS_6ZZ_pEXERKS0_S3_
libntl.so.44:_ZN3NTL6SqrModERNS_6zz_pEXERKS0_RKNS_13zz_pEXModulusE
libntl.so.44:_ZN3NTL6SqrModERNS_6zz_pEXERKS0_S3_
libntl.so.44:_ZN3NTL6SubModERNS_2ZZERKS0_lS3_
libntl.so.44:_ZN3NTL6SubModERNS_2ZZElRKS0_S3_
libntl.so.44:_ZN3NTL6ZZ_pEX4zeroEv
libntl.so.44:_ZN3NTL6ZZ_pEX9normalizeEv
libntl.so.44:_ZN3NTL6bit_orERNS_2ZZERKS0_l
libntl.so.44:_ZN3NTL6divideERKNS_2ZZES2_
libntl.so.44:_ZN3NTL6divideERKNS_2ZZEl
libntl.so.44:_ZN3NTL6divideERKNS_3ZZXERKNS_2ZZE
libntl.so.44:_ZN3NTL6divideERKNS_3ZZXES2_
libntl.so.44:_ZN3NTL6divideERKNS_3ZZXEl
libntl.so.44:_ZN3NTL6divideERKNS_4GF2XES2_
libntl.so.44:_ZN3NTL6divideERKNS_5GF2EXES2_
libntl.so.44:_ZN3NTL6divideERKNS_5ZZ_pXES2_
libntl.so.44:_ZN3NTL6divideERKNS_5zz_pXES2_
libntl.so.44:_ZN3NTL6divideERKNS_6ZZ_pEXES2_
libntl.so.44:_ZN3NTL6divideERKNS_6zz_pEXES2_
libntl.so.44:_ZN3NTL6divideERNS_2ZZERKS0_S3_
libntl.so.44:_ZN3NTL6divideERNS_2ZZERKS0_l
libntl.so.44:_ZN3NTL6divideERNS_3ZZXERKS0_RKNS_2ZZE
libntl.so.44:_ZN3NTL6divideERNS_3ZZXERKS0_S3_
libntl.so.44:_ZN3NTL6divideERNS_3ZZXERKS0_l
libntl.so.44:_ZN3NTL6divideERNS_4GF2XERKS0_S3_
libntl.so.44:_ZN3NTL6divideERNS_5GF2EXERKS0_S3_
libntl.so.44:_ZN3NTL6divideERNS_5ZZ_pXERKS0_S3_
libntl.so.44:_ZN3NTL6divideERNS_5zz_pXERKS0_S3_
libntl.so.44:_ZN3NTL6divideERNS_6ZZ_pEXERKS0_S3_
libntl.so.44:_ZN3NTL6divideERNS_6zz_pEXERKS0_S3_
libntl.so.44:_ZN3NTL6factorERNS_2ZZERNS_3VecINS_4PairINS_3ZZXElEEEERKS4_ll
libntl.so.44:_ZN3NTL6fftRep7SetSizeEl
libntl.so.44:_ZN3NTL6fftRep9DoSetSizeEll
libntl.so.44:_ZN3NTL6fftRepaSERKS0_
libntl.so.44:_ZN3NTL6kernelERNS_3MatINS_3GF2EEERKS2_
libntl.so.44:_ZN3NTL6kernelERNS_3MatINS_4GF2EEEERKS2_
libntl.so.44:_ZN3NTL6kernelERNS_3MatINS_4ZZ_pEEERKS2_
libntl.so.44:_ZN3NTL6kernelERNS_3MatINS_4zz_pEEERKS2_
libntl.so.44:_ZN3NTL6kernelERNS_3MatINS_5ZZ_pEEEERKS2_
libntl.so.44:_ZN3NTL6kernelERNS_3MatINS_5zz_pEEEERKS2_
libntl.so.44:_ZN3NTL6negateERNS_2RRERKS0_
libntl.so.44:_ZN3NTL6negateERNS_3MatINS_2RREEERKS2_
libntl.so.44:_ZN3NTL6negateERNS_3MatINS_2ZZEEERKS2_
libntl.so.44:_ZN3NTL6negateERNS_3MatINS_4ZZ_pEEERKS2_
libntl.so.44:_ZN3NTL6negateERNS_3MatINS_4zz_pEEERKS2_
libntl.so.44:_ZN3NTL6negateERNS_3MatINS_5ZZ_pEEEERKS2_
libntl.so.44:_ZN3NTL6negateERNS_3MatINS_5zz_pEEEERKS2_
libntl.so.44:_ZN3NTL6negateERNS_3VecINS_2RREEERKS2_
libntl.so.44:_ZN3NTL6negateERNS_3VecINS_2ZZEEERKS2_
libntl.so.44:_ZN3NTL6negateERNS_3VecINS_4ZZ_pEEERKS2_
libntl.so.44:_ZN3NTL6negateERNS_3VecINS_4zz_pEEERKS2_
libntl.so.44:_ZN3NTL6negateERNS_3VecINS_5ZZ_pEEEERKS2_
libntl.so.44:_ZN3NTL6negateERNS_3VecINS_5zz_pEEEERKS2_
libntl.so.44:_ZN3NTL6negateERNS_3ZZXERKS0_
libntl.so.44:_ZN3NTL6negateERNS_5ZZ_pXERKS0_
libntl.so.44:_ZN3NTL6negateERNS_5zz_pXERKS0_
libntl.so.44:_ZN3NTL6negateERNS_6ZZ_pEXERKS0_
libntl.so.44:_ZN3NTL6negateERNS_6zz_pEXERKS0_
libntl.so.44:_ZN3NTL6power2ERNS_10quad_floatEl
libntl.so.44:_ZN3NTL6power2ERNS_2RREl
libntl.so.44:_ZN3NTL6power2ERNS_2ZZEl
libntl.so.44:_ZN3NTL6power2ERNS_7xdoubleEl
libntl.so.44:_ZN3NTL6randomERNS_10quad_floatE
libntl.so.44:_ZN3NTL6randomERNS_2RRE
libntl.so.44:_ZN3NTL6randomERNS_3MatINS_3GF2EEEll
libntl.so.44:_ZN3NTL6randomERNS_3MatINS_4GF2EEEEll
libntl.so.44:_ZN3NTL6randomERNS_3MatINS_4ZZ_pEEEll
libntl.so.44:_ZN3NTL6randomERNS_3MatINS_4zz_pEEEll
libntl.so.44:_ZN3NTL6randomERNS_3MatINS_5ZZ_pEEEEll
libntl.so.44:_ZN3NTL6randomERNS_3MatINS_5zz_pEEEEll
libntl.so.44:_ZN3NTL6randomERNS_3VecINS_3GF2EEEl
libntl.so.44:_ZN3NTL6randomERNS_3VecINS_4GF2EEEEl
libntl.so.44:_ZN3NTL6randomERNS_3VecINS_4ZZ_pEEEl
libntl.so.44:_ZN3NTL6randomERNS_3VecINS_4zz_pEEEl
libntl.so.44:_ZN3NTL6randomERNS_3VecINS_5ZZ_pEEEEl
libntl.so.44:_ZN3NTL6randomERNS_3VecINS_5zz_pEEEEl
libntl.so.44:_ZN3NTL6randomERNS_4GF2XEl
libntl.so.44:_ZN3NTL6randomERNS_5GF2EXEl
libntl.so.44:_ZN3NTL6randomERNS_5ZZ_pXEl
libntl.so.44:_ZN3NTL6randomERNS_5zz_pXEl
libntl.so.44:_ZN3NTL6randomERNS_6ZZ_pEXEl
libntl.so.44:_ZN3NTL6randomERNS_6zz_pEXEl
libntl.so.44:_ZN3NTL6reduceERKNS_19MatPrime_crt_helperERKNS_2ZZEPlRNS_27MatPrime_crt_helper_scratchE
libntl.so.44:_ZN3NTL6reduceERNS_16zz_pXNewArgumentERKNS_12zz_pXModulusE
libntl.so.44:_ZN3NTL6reduceERNS_6FFTRepERKS0_l
libntl.so.44:_ZN3NTL6reduceERNS_6fftRepERKS0_l
libntl.so.44:_ZN3NTL6solve1ERNS_2ZZERNS_3VecIS0_EERKNS_3MatIS0_EERKS3_
libntl.so.44:_ZN3NTL6weightERKNS_3VecINS_3GF2EEE
libntl.so.44:_ZN3NTL6weightERKNS_4GF2XE
libntl.so.44:_ZN3NTL6zz_pEX4zeroEv
libntl.so.44:_ZN3NTL6zz_pEX9normalizeEv
libntl.so.44:_ZN3NTL7AbsPrecERNS_2RRERKS0_l
libntl.so.44:_ZN3NTL7AddPrecERNS_2RRERKS0_S3_l
libntl.so.44:_ZN3NTL7BKZ_QP1ERNS_3MatINS_2ZZEEES3_dllPFlRKNS_3VecIS1_EEEl
libntl.so.44:_ZN3NTL7BKZ_QP1ERNS_3MatINS_2ZZEEEdllPFlRKNS_3VecIS1_EEEl
libntl.so.44:_ZN3NTL7CanZassERNS_3VecINS_4PairINS_4GF2XElEEEERKS2_l
libntl.so.44:_ZN3NTL7CanZassERNS_3VecINS_4PairINS_5GF2EXElEEEERKS2_l
libntl.so.44:_ZN3NTL7CanZassERNS_3VecINS_4PairINS_5ZZ_pXElEEEERKS2_l
libntl.so.44:_ZN3NTL7CanZassERNS_3VecINS_4PairINS_5zz_pXElEEEERKS2_l
libntl.so.44:_ZN3NTL7CanZassERNS_3VecINS_4PairINS_6ZZ_pEXElEEEERKS2_l
libntl.so.44:_ZN3NTL7CanZassERNS_3VecINS_4PairINS_6zz_pEXElEEEERKS2_l
libntl.so.44:_ZN3NTL7CompModERNS_4GF2XERKS0_RKNS_12GF2XArgumentERKNS_11GF2XModulusE
libntl.so.44:_ZN3NTL7CompModERNS_4GF2XERKS0_S3_RKNS_11GF2XModulusE
libntl.so.44:_ZN3NTL7CompModERNS_5GF2EXERKS0_RKNS_13GF2EXArgumentERKNS_12GF2EXModulusE
libntl.so.44:_ZN3NTL7CompModERNS_5GF2EXERKS0_S3_RKNS_12GF2EXModulusE
libntl.so.44:_ZN3NTL7CompModERNS_5ZZ_pXERKS0_RKNS_13ZZ_pXArgumentERKNS_12ZZ_pXModulusE
libntl.so.44:_ZN3NTL7CompModERNS_5ZZ_pXERKS0_RKNS_16ZZ_pXNewArgumentERKNS_12ZZ_pXModulusE
libntl.so.44:_ZN3NTL7CompModERNS_5ZZ_pXERKS0_S3_RKNS_12ZZ_pXModulusE
libntl.so.44:_ZN3NTL7CompModERNS_5zz_pXERKS0_RKNS_13zz_pXArgumentERKNS_12zz_pXModulusE
libntl.so.44:_ZN3NTL7CompModERNS_5zz_pXERKS0_RKNS_16zz_pXNewArgumentERKNS_12zz_pXModulusE
libntl.so.44:_ZN3NTL7CompModERNS_5zz_pXERKS0_S3_RKNS_12zz_pXModulusE
libntl.so.44:_ZN3NTL7CompModERNS_6ZZ_pEXERKS0_RKNS_14ZZ_pEXArgumentERKNS_13ZZ_pEXModulusE
libntl.so.44:_ZN3NTL7CompModERNS_6ZZ_pEXERKS0_S3_RKNS_13ZZ_pEXModulusE
libntl.so.44:_ZN3NTL7CompModERNS_6zz_pEXERKS0_RKNS_14zz_pEXArgumentERKNS_13zz_pEXModulusE
libntl.so.44:_ZN3NTL7CompModERNS_6zz_pEXERKS0_S3_RKNS_13zz_pEXModulusE
libntl.so.44:_ZN3NTL7DivPrecERNS_2RRERKS0_S3_l
libntl.so.44:_ZN3NTL7GF2EBak4saveEv
libntl.so.44:_ZN3NTL7GF2EBak7restoreEv
libntl.so.44:_ZN3NTL7GF2EBakD1Ev
libntl.so.44:_ZN3NTL7GF2EBakD2Ev
libntl.so.44:_ZN3NTL7GF2XVec4killEv
libntl.so.44:_ZN3NTL7GF2XVec7SetSizeEll
libntl.so.44:_ZN3NTL7GF2XVecC1ERKS0_
libntl.so.44:_ZN3NTL7GF2XVecC2ERKS0_
libntl.so.44:_ZN3NTL7GF2XVecaSERKS0_
libntl.so.44:_ZN3NTL7HalfGCDERNS_11ZZ_pXMatrixERKNS_5ZZ_pXES4_l
libntl.so.44:_ZN3NTL7HalfGCDERNS_11zz_pXMatrixERKNS_5zz_pXES4_l
libntl.so.44:_ZN3NTL7HalfGCDERNS_16_NTL_GF2EXMatrixERKNS_5GF2EXES4_l
libntl.so.44:_ZN3NTL7HalfGCDERNS_17_NTL_ZZ_pEXMatrixERKNS_6ZZ_pEXES4_l
libntl.so.44:_ZN3NTL7HalfGCDERNS_17_NTL_zz_pEXMatrixERKNS_6zz_pEXES4_l
libntl.so.44:_ZN3NTL7HalfGCDERNS_5GF2EXES1_
libntl.so.44:_ZN3NTL7HalfGCDERNS_5ZZ_pXES1_
libntl.so.44:_ZN3NTL7HalfGCDERNS_5zz_pXES1_
libntl.so.44:_ZN3NTL7HalfGCDERNS_6ZZ_pEXES1_
libntl.so.44:_ZN3NTL7HalfGCDERNS_6zz_pEXES1_
libntl.so.44:_ZN3NTL7InvPrecERNS_2RRERKS0_l
libntl.so.44:_ZN3NTL7IsIdentERKNS_3MatINS_2RREEEl
libntl.so.44:_ZN3NTL7IsIdentERKNS_3MatINS_2ZZEEEl
libntl.so.44:_ZN3NTL7IsIdentERKNS_3MatINS_3GF2EEEl
libntl.so.44:_ZN3NTL7IsIdentERKNS_3MatINS_4GF2EEEEl
libntl.so.44:_ZN3NTL7IsIdentERKNS_3MatINS_4ZZ_pEEEl
libntl.so.44:_ZN3NTL7IsIdentERKNS_3MatINS_4zz_pEEEl
libntl.so.44:_ZN3NTL7IsIdentERKNS_3MatINS_5ZZ_pEEEEl
libntl.so.44:_ZN3NTL7IsIdentERKNS_3MatINS_5zz_pEEEEl
libntl.so.44:_ZN3NTL7KarFoldEPNS_4zz_pEPKS0_ll
libntl.so.44:_ZN3NTL7KronMulERNS_5GF2EXERKS0_S3_
libntl.so.44:_ZN3NTL7MaxBitsERKNS_3ZZXE
libntl.so.44:_ZN3NTL7MulPrecERNS_2RRERKS0_S3_l
libntl.so.44:_ZN3NTL7NormModERNS_2ZZERKNS_3ZZXES4_l
libntl.so.44:_ZN3NTL7NormModERNS_4GF2EERKNS_5GF2EXES4_
libntl.so.44:_ZN3NTL7NormModERNS_4ZZ_pERKNS_5ZZ_pXES4_
libntl.so.44:_ZN3NTL7NormModERNS_4zz_pERKNS_5zz_pXES4_
libntl.so.44:_ZN3NTL7NormModERNS_5ZZ_pEERKNS_6ZZ_pEXES4_
libntl.so.44:_ZN3NTL7NormModERNS_5zz_pEERKNS_6zz_pEXES4_
libntl.so.44:_ZN3NTL7OldXGCDERNS_4GF2XES1_S1_RKS0_S3_
libntl.so.44:_ZN3NTL7RootEDFERNS_3VecINS_5GF2EXEEERKS1_l
libntl.so.44:_ZN3NTL7RootEDFERNS_3VecINS_5ZZ_pXEEERKS1_l
libntl.so.44:_ZN3NTL7RootEDFERNS_3VecINS_5zz_pXEEERKS1_l
libntl.so.44:_ZN3NTL7RootEDFERNS_3VecINS_6ZZ_pEXEEERKS1_l
libntl.so.44:_ZN3NTL7RootEDFERNS_3VecINS_6zz_pEXEEERKS1_l
libntl.so.44:_ZN3NTL7SSRatioEllll
libntl.so.44:_ZN3NTL7SetSeedEPKhl
libntl.so.44:_ZN3NTL7SetSeedERKNS_12RandomStreamE
libntl.so.44:_ZN3NTL7SetSeedERKNS_2ZZE
libntl.so.44:_ZN3NTL7SetSizeERNS_3VecINS_5ZZ_pXEEEll
libntl.so.44:_ZN3NTL7SetSizeERNS_3VecINS_5zz_pXEEEll
libntl.so.44:_ZN3NTL7SqrPrecERNS_2RRERKS0_l
libntl.so.44:_ZN3NTL7SqrRootERNS_2RRERKS0_
libntl.so.44:_ZN3NTL7SubPrecERNS_2RRERKS0_S3_l
libntl.so.44:_ZN3NTL7ZZ_expoEl
libntl.so.44:_ZN3NTL7ZZ_pBak4saveEv
libntl.so.44:_ZN3NTL7ZZ_pBak7restoreEv
libntl.so.44:_ZN3NTL7ZZ_pBakD1Ev
libntl.so.44:_ZN3NTL7ZZ_pBakD2Ev
libntl.so.44:_ZN3NTL7bit_andERNS_2ZZERKS0_l
libntl.so.44:_ZN3NTL7bit_xorERNS_2ZZERKS0_l
libntl.so.44:_ZN3NTL7compareERKNS_10quad_floatES2_
libntl.so.44:_ZN3NTL7compareERKNS_2RRES2_
libntl.so.44:_ZN3NTL7compareERKNS_2RREd
libntl.so.44:_ZN3NTL7compareERKNS_7xdoubleES2_
libntl.so.44:_ZN3NTL7contentERNS_2ZZERKNS_3ZZXE
libntl.so.44:_ZN3NTL7mul_auxERNS_3MatINS_2RREEERKS2_S5_
libntl.so.44:_ZN3NTL7mul_auxERNS_3MatINS_2ZZEEERKS2_S5_
libntl.so.44:_ZN3NTL7mul_auxERNS_3MatINS_3GF2EEERKS2_S5_
libntl.so.44:_ZN3NTL7mul_auxERNS_3VecINS_4zz_pEEERKNS_3MatIS1_EERKS2_
libntl.so.44:_ZN3NTL7new_fftEPlPKllRKNS_12FFTPrimeInfoEll
libntl.so.44:_ZN3NTL7reverseERNS_3VecINS_3GF2EEERKS2_
libntl.so.44:_ZN3NTL7reverseERNS_3ZZXERKS0_l
libntl.so.44:_ZN3NTL7reverseERNS_5GF2EXERKS0_l
libntl.so.44:_ZN3NTL7reverseERNS_5ZZ_pXERKS0_l
libntl.so.44:_ZN3NTL7reverseERNS_5zz_pXERKS0_l
libntl.so.44:_ZN3NTL7reverseERNS_6ZZ_pEXERKS0_l
libntl.so.44:_ZN3NTL7reverseERNS_6zz_pEXERKS0_l
libntl.so.44:_ZN3NTL7to_longERKNS_10quad_floatE
libntl.so.44:_ZN3NTL7xdouble18SetOutputPrecisionEl
libntl.so.44:_ZN3NTL7xdouble5oprecE
libntl.so.44:_ZN3NTL7xdouble9normalizeEv
libntl.so.44:_ZN3NTL7zz_pBak4saveEv
libntl.so.44:_ZN3NTL7zz_pBak7restoreEv
libntl.so.44:_ZN3NTL7zz_pBakD1Ev
libntl.so.44:_ZN3NTL7zz_pBakD2Ev
libntl.so.44:_ZN3NTL8AddToColERNS_3MatINS_3GF2EEElRKNS_3VecIS1_EE
libntl.so.44:_ZN3NTL8BaseCaseERKNS_6ZZ_pEXEllRKNS_13ZZ_pEXModulusE
libntl.so.44:_ZN3NTL8BaseCaseERKNS_6zz_pEXEllRKNS_13zz_pEXModulusE
libntl.so.44:_ZN3NTL8CeilPrecERNS_2RRERKS0_l
libntl.so.44:_ZN3NTL8CeilToZZERNS_2ZZERKNS_2RRE
libntl.so.44:_ZN3NTL8CharPolyERNS_3ZZXERKNS_3MatINS_2ZZEEEl
libntl.so.44:_ZN3NTL8CharPolyERNS_5ZZ_pXERKNS_3MatINS_4ZZ_pEEE
libntl.so.44:_ZN3NTL8CharPolyERNS_5zz_pXERKNS_3MatINS_4zz_pEEE
libntl.so.44:_ZN3NTL8Comp2ModERNS_4GF2XES1_RKS0_S3_S3_RKNS_11GF2XModulusE
libntl.so.44:_ZN3NTL8Comp2ModERNS_5GF2EXES1_RKS0_S3_S3_RKNS_12GF2EXModulusE
libntl.so.44:_ZN3NTL8Comp2ModERNS_5ZZ_pXES1_RKS0_S3_S3_RKNS_12ZZ_pXModulusE
libntl.so.44:_ZN3NTL8Comp2ModERNS_5zz_pXES1_RKS0_S3_S3_RKNS_12zz_pXModulusE
libntl.so.44:_ZN3NTL8Comp2ModERNS_6ZZ_pEXES1_RKS0_S3_S3_RKNS_13ZZ_pEXModulusE
libntl.so.44:_ZN3NTL8Comp2ModERNS_6zz_pEXES1_RKS0_S3_S3_RKNS_13zz_pEXModulusE
libntl.so.44:_ZN3NTL8Comp3ModERNS_4GF2XES1_S1_RKS0_S3_S3_S3_RKNS_11GF2XModulusE
libntl.so.44:_ZN3NTL8Comp3ModERNS_5GF2EXES1_S1_RKS0_S3_S3_S3_RKNS_12GF2EXModulusE
libntl.so.44:_ZN3NTL8Comp3ModERNS_5ZZ_pXES1_S1_RKS0_S3_S3_S3_RKNS_12ZZ_pXModulusE
libntl.so.44:_ZN3NTL8Comp3ModERNS_5zz_pXES1_S1_RKS0_S3_S3_S3_RKNS_12zz_pXModulusE
libntl.so.44:_ZN3NTL8Comp3ModERNS_6ZZ_pEXES1_S1_RKS0_S3_S3_S3_RKNS_13ZZ_pEXModulusE
libntl.so.44:_ZN3NTL8Comp3ModERNS_6zz_pEXES1_S1_RKS0_S3_S3_S3_RKNS_13zz_pEXModulusE
libntl.so.44:_ZN3NTL8ComputeEERNS_2RRE
libntl.so.44:_ZN3NTL8ConvPrecERNS_2RREPKcl
libntl.so.44:_ZN3NTL8ConvPrecERNS_2RRERKNS_10quad_floatEl
libntl.so.44:_ZN3NTL8ConvPrecERNS_2RRERKNS_2ZZEl
libntl.so.44:_ZN3NTL8ConvPrecERNS_2RRERKNS_7xdoubleEl
libntl.so.44:_ZN3NTL8ConvPrecERNS_2RRERKS0_l
libntl.so.44:_ZN3NTL8ConvPrecERNS_2RREdl
libntl.so.44:_ZN3NTL8ConvPrecERNS_2RREll
libntl.so.44:_ZN3NTL8ConvPrecERNS_2RREml
libntl.so.44:_ZN3NTL8CopySwapERNS_10WordVectorES1_
libntl.so.44:_ZN3NTL8DivRem21ERNS_5ZZ_pXES1_RKS0_RKNS_12ZZ_pXModulusE
libntl.so.44:_ZN3NTL8DivRem21ERNS_5zz_pXES1_RKS0_RKNS_12zz_pXModulusE
libntl.so.44:_ZN3NTL8EDFSplitERNS_3VecINS_6ZZ_pEXEEERKS1_S5_l
libntl.so.44:_ZN3NTL8EDFSplitERNS_3VecINS_6zz_pEXEEERKS1_S5_l
libntl.so.44:_ZN3NTL8FileList10RemoveLastEv
libntl.so.44:_ZN3NTL8FileList7AddFileEPKc
libntl.so.44:_ZN3NTL8FileListD1Ev
libntl.so.44:_ZN3NTL8FileListD2Ev
libntl.so.44:_ZN3NTL8FileNameEPKcl
libntl.so.44:_ZN3NTL8FindRootERNS_4GF2EERKNS_5GF2EXE
libntl.so.44:_ZN3NTL8FindRootERNS_4ZZ_pERKNS_5ZZ_pXE
libntl.so.44:_ZN3NTL8FindRootERNS_4zz_pERKNS_5zz_pXE
libntl.so.44:_ZN3NTL8FindRootERNS_5ZZ_pEERKNS_6ZZ_pEXE
libntl.so.44:_ZN3NTL8FindRootERNS_5zz_pEERKNS_6zz_pEXE
libntl.so.44:_ZN3NTL8GF2EInfoE
libntl.so.44:_ZN3NTL8G_BKZ_FPERNS_3MatINS_2ZZEEES3_dllPFlRKNS_3VecIS1_EEEl
libntl.so.44:_ZN3NTL8G_BKZ_FPERNS_3MatINS_2ZZEEEdllPFlRKNS_3VecIS1_EEEl
libntl.so.44:_ZN3NTL8G_BKZ_QPERNS_3MatINS_2ZZEEES3_dllPFlRKNS_3VecIS1_EEEl
libntl.so.44:_ZN3NTL8G_BKZ_QPERNS_3MatINS_2ZZEEEdllPFlRKNS_3VecIS1_EEEl
libntl.so.44:_ZN3NTL8G_BKZ_RRERNS_3MatINS_2ZZEEES3_dllPFlRKNS_3VecIS1_EEEl
libntl.so.44:_ZN3NTL8G_BKZ_RRERNS_3MatINS_2ZZEEEdllPFlRKNS_3VecIS1_EEEl
libntl.so.44:_ZN3NTL8G_BKZ_XDERNS_3MatINS_2ZZEEES3_dllPFlRKNS_3VecIS1_EEEl
libntl.so.44:_ZN3NTL8G_BKZ_XDERNS_3MatINS_2ZZEEEdllPFlRKNS_3VecIS1_EEEl
libntl.so.44:_ZN3NTL8G_LLL_FPERNS_3MatINS_2ZZEEES3_dlPFlRKNS_3VecIS1_EEEl
libntl.so.44:_ZN3NTL8G_LLL_FPERNS_3MatINS_2ZZEEEdlPFlRKNS_3VecIS1_EEEl
libntl.so.44:_ZN3NTL8G_LLL_QPERNS_3MatINS_2ZZEEES3_dlPFlRKNS_3VecIS1_EEEl
libntl.so.44:_ZN3NTL8G_LLL_QPERNS_3MatINS_2ZZEEEdlPFlRKNS_3VecIS1_EEEl
libntl.so.44:_ZN3NTL8G_LLL_RRERNS_3MatINS_2ZZEEES3_dlPFlRKNS_3VecIS1_EEEl
libntl.so.44:_ZN3NTL8G_LLL_RRERNS_3MatINS_2ZZEEEdlPFlRKNS_3VecIS1_EEEl
libntl.so.44:_ZN3NTL8G_LLL_XDERNS_3MatINS_2ZZEEES3_dlPFlRKNS_3VecIS1_EEEl
libntl.so.44:_ZN3NTL8G_LLL_XDERNS_3MatINS_2ZZEEEdlPFlRKNS_3VecIS1_EEEl
libntl.so.44:_ZN3NTL8GenPrimeERNS_2ZZEll
libntl.so.44:_ZN3NTL8GetCoeffERNS_2ZZERKNS_3ZZXEl
libntl.so.44:_ZN3NTL8GetCoeffERNS_4GF2EERKNS_5GF2EXEl
libntl.so.44:_ZN3NTL8GetCoeffERNS_4ZZ_pERKNS_5ZZ_pXEl
libntl.so.44:_ZN3NTL8GetCoeffERNS_4zz_pERKNS_5zz_pXEl
libntl.so.44:_ZN3NTL8InvTruncERNS_3ZZXERKS0_l
libntl.so.44:_ZN3NTL8InvTruncERNS_4GF2XERKS0_l
libntl.so.44:_ZN3NTL8InvTruncERNS_5GF2EXERKS0_l
libntl.so.44:_ZN3NTL8InvTruncERNS_5ZZ_pXERKS0_l
libntl.so.44:_ZN3NTL8InvTruncERNS_5zz_pXERKS0_l
libntl.so.44:_ZN3NTL8InvTruncERNS_6ZZ_pEXERKS0_l
libntl.so.44:_ZN3NTL8InvTruncERNS_6zz_pEXERKS0_l
libntl.so.44:_ZN3NTL8IsFiniteEPNS_10quad_floatE
libntl.so.44:_ZN3NTL8LLL_plusERNS_3VecINS_2ZZEEERNS_3MatIS1_EES6_l
libntl.so.44:_ZN3NTL8LLL_plusERNS_3VecINS_2ZZEEERNS_3MatIS1_EES6_lll
libntl.so.44:_ZN3NTL8LLL_plusERNS_3VecINS_2ZZEEERNS_3MatIS1_EEl
libntl.so.44:_ZN3NTL8LLL_plusERNS_3VecINS_2ZZEEERNS_3MatIS1_EElll
libntl.so.44:_ZN3NTL8MulTruncERNS_3ZZXERKS0_S3_l
libntl.so.44:_ZN3NTL8MulTruncERNS_4GF2XERKS0_S3_l
libntl.so.44:_ZN3NTL8MulTruncERNS_5GF2EXERKS0_S3_l
libntl.so.44:_ZN3NTL8MulTruncERNS_5ZZ_pXERKS0_S3_l
libntl.so.44:_ZN3NTL8MulTruncERNS_5zz_pXERKS0_S3_l
libntl.so.44:_ZN3NTL8MulTruncERNS_6ZZ_pEXERKS0_S3_l
libntl.so.44:_ZN3NTL8MulTruncERNS_6zz_pEXERKS0_S3_l
libntl.so.44:_ZN3NTL8OpenReadERSt14basic_ifstreamIcSt11char_traitsIcEEPKc
libntl.so.44:_ZN3NTL8PlainDivERNS_4GF2XERKS0_S3_
libntl.so.44:_ZN3NTL8PlainDivERNS_5GF2EXERKS0_S3_
libntl.so.44:_ZN3NTL8PlainDivERNS_5ZZ_pXERKS0_S3_
libntl.so.44:_ZN3NTL8PlainDivERNS_5zz_pXERKS0_S3_
libntl.so.44:_ZN3NTL8PlainDivERNS_6ZZ_pEXERKS0_S3_
libntl.so.44:_ZN3NTL8PlainDivERNS_6zz_pEXERKS0_S3_
libntl.so.44:_ZN3NTL8PlainGCDERNS_5GF2EXERKS0_S3_
libntl.so.44:_ZN3NTL8PlainGCDERNS_5ZZ_pXERKS0_S3_
libntl.so.44:_ZN3NTL8PlainGCDERNS_5zz_pXERKS0_S3_
libntl.so.44:_ZN3NTL8PlainGCDERNS_6ZZ_pEXERKS0_S3_
libntl.so.44:_ZN3NTL8PlainGCDERNS_6zz_pEXERKS0_S3_
libntl.so.44:_ZN3NTL8PlainMulEPNS_4zz_pEPKS0_lS3_l
libntl.so.44:_ZN3NTL8PlainMulERNS_3ZZXERKS0_S3_
libntl.so.44:_ZN3NTL8PlainMulERNS_5GF2EXERKS0_S3_
libntl.so.44:_ZN3NTL8PlainMulERNS_5ZZ_pXERKS0_S3_
libntl.so.44:_ZN3NTL8PlainMulERNS_5zz_pXERKS0_S3_
libntl.so.44:_ZN3NTL8PlainMulERNS_6ZZ_pEXERKS0_S3_
libntl.so.44:_ZN3NTL8PlainMulERNS_6zz_pEXERKS0_S3_
libntl.so.44:_ZN3NTL8PlainRemERNS_4GF2XERKS0_S3_
libntl.so.44:_ZN3NTL8PlainRemERNS_5GF2EXERKS0_S3_
libntl.so.44:_ZN3NTL8PlainRemERNS_5GF2EXERKS0_S3_RNS_7GF2XVecE
libntl.so.44:_ZN3NTL8PlainRemERNS_5ZZ_pXERKS0_S3_
libntl.so.44:_ZN3NTL8PlainRemERNS_5ZZ_pXERKS0_S3_RNS_5ZZVecE
libntl.so.44:_ZN3NTL8PlainRemERNS_5zz_pXERKS0_S3_
libntl.so.44:_ZN3NTL8PlainRemERNS_6ZZ_pEXERKS0_S3_
libntl.so.44:_ZN3NTL8PlainRemERNS_6ZZ_pEXERKS0_S3_RNS_3VecINS_5ZZ_pXEEE
libntl.so.44:_ZN3NTL8PlainRemERNS_6zz_pEXERKS0_S3_
libntl.so.44:_ZN3NTL8PlainRemERNS_6zz_pEXERKS0_S3_RNS_3VecINS_5zz_pXEEE
libntl.so.44:_ZN3NTL8PlainSqrEPNS_2ZZEPKS0_l
libntl.so.44:_ZN3NTL8PlainSqrEPNS_4zz_pEPKS0_l
libntl.so.44:_ZN3NTL8PlainSqrERNS_3ZZXERKS0_
libntl.so.44:_ZN3NTL8PlainSqrERNS_5ZZ_pXERKS0_
libntl.so.44:_ZN3NTL8PlainSqrERNS_5zz_pXERKS0_
libntl.so.44:_ZN3NTL8PowerModERNS_2ZZERKS0_S3_S3_
libntl.so.44:_ZN3NTL8PowerModERNS_4GF2XERKS0_RKNS_2ZZERKNS_11GF2XModulusE
libntl.so.44:_ZN3NTL8PowerModERNS_5GF2EXERKS0_RKNS_2ZZERKNS_12GF2EXModulusE
libntl.so.44:_ZN3NTL8PowerModERNS_5ZZ_pXERKS0_RKNS_2ZZERKNS_12ZZ_pXModulusE
libntl.so.44:_ZN3NTL8PowerModERNS_5zz_pXERKS0_RKNS_2ZZERKNS_12zz_pXModulusE
libntl.so.44:_ZN3NTL8PowerModERNS_6ZZ_pEXERKS0_RKNS_2ZZERKNS_13ZZ_pEXModulusE
libntl.so.44:_ZN3NTL8PowerModERNS_6zz_pEXERKS0_RKNS_2ZZERKNS_13zz_pEXModulusE
libntl.so.44:_ZN3NTL8PowerModElll
libntl.so.44:_ZN3NTL8PrimeSeq4nextEv
libntl.so.44:_ZN3NTL8PrimeSeq5resetEl
libntl.so.44:_ZN3NTL8PrimeSeq5shiftEl
libntl.so.44:_ZN3NTL8PrimeSeq5startEv
libntl.so.44:_ZN3NTL8PrimeSeqC1Ev
libntl.so.44:_ZN3NTL8PrimeSeqC2Ev
libntl.so.44:_ZN3NTL8SFFactorERNS_3VecINS_3ZZXEEERKS1_ll
libntl.so.44:_ZN3NTL8SetCoeffERNS_3ZZXEl
libntl.so.44:_ZN3NTL8SetCoeffERNS_3ZZXElRKNS_2ZZE
libntl.so.44:_ZN3NTL8SetCoeffERNS_3ZZXEll
libntl.so.44:_ZN3NTL8SetCoeffERNS_4GF2XEl
libntl.so.44:_ZN3NTL8SetCoeffERNS_4GF2XElNS_3GF2E
libntl.so.44:_ZN3NTL8SetCoeffERNS_4GF2XEll
libntl.so.44:_ZN3NTL8SetCoeffERNS_5GF2EXEl
libntl.so.44:_ZN3NTL8SetCoeffERNS_5GF2EXElNS_3GF2E
libntl.so.44:_ZN3NTL8SetCoeffERNS_5GF2EXElRKNS_4GF2EE
libntl.so.44:_ZN3NTL8SetCoeffERNS_5GF2EXEll
libntl.so.44:_ZN3NTL8SetCoeffERNS_5ZZ_pXEl
libntl.so.44:_ZN3NTL8SetCoeffERNS_5ZZ_pXElRKNS_4ZZ_pE
libntl.so.44:_ZN3NTL8SetCoeffERNS_5ZZ_pXEll
libntl.so.44:_ZN3NTL8SetCoeffERNS_5zz_pXEl
libntl.so.44:_ZN3NTL8SetCoeffERNS_5zz_pXElNS_4zz_pE
libntl.so.44:_ZN3NTL8SetCoeffERNS_5zz_pXEll
libntl.so.44:_ZN3NTL8SetCoeffERNS_6ZZ_pEXEl
libntl.so.44:_ZN3NTL8SetCoeffERNS_6ZZ_pEXElRKNS_4ZZ_pE
libntl.so.44:_ZN3NTL8SetCoeffERNS_6ZZ_pEXElRKNS_5ZZ_pEE
libntl.so.44:_ZN3NTL8SetCoeffERNS_6ZZ_pEXEll
libntl.so.44:_ZN3NTL8SetCoeffERNS_6zz_pEXEl
libntl.so.44:_ZN3NTL8SetCoeffERNS_6zz_pEXElRKNS_4zz_pE
libntl.so.44:_ZN3NTL8SetCoeffERNS_6zz_pEXElRKNS_5zz_pEE
libntl.so.44:_ZN3NTL8SetCoeffERNS_6zz_pEXEll
libntl.so.44:_ZN3NTL8ShiftAddEPmPKmll
libntl.so.44:_ZN3NTL8ShiftAddERNS_4GF2XERKS0_l
libntl.so.44:_ZN3NTL8ShiftAddERNS_5GF2EXERKS0_l
libntl.so.44:_ZN3NTL8ShiftAddERNS_5ZZ_pXERKS0_l
libntl.so.44:_ZN3NTL8ShiftAddERNS_5zz_pXERKS0_l
libntl.so.44:_ZN3NTL8ShiftSubERNS_5ZZ_pXERKS0_l
libntl.so.44:_ZN3NTL8ShiftSubERNS_5zz_pXERKS0_l
libntl.so.44:_ZN3NTL8ShiftSubERNS_6ZZ_pEXERKS0_l
libntl.so.44:_ZN3NTL8ShiftSubERNS_6zz_pEXERKS0_l
libntl.so.44:_ZN3NTL8SqrTruncERNS_3ZZXERKS0_l
libntl.so.44:_ZN3NTL8SqrTruncERNS_4GF2XERKS0_l
libntl.so.44:_ZN3NTL8SqrTruncERNS_5GF2EXERKS0_l
libntl.so.44:_ZN3NTL8SqrTruncERNS_5ZZ_pXERKS0_l
libntl.so.44:_ZN3NTL8SqrTruncERNS_5zz_pXERKS0_l
libntl.so.44:_ZN3NTL8SqrTruncERNS_6ZZ_pEXERKS0_l
libntl.so.44:_ZN3NTL8SqrTruncERNS_6zz_pEXERKS0_l
libntl.so.44:_ZN3NTL8ToFFTRepERNS_6FFTRepERKNS_11ZZ_pXModRepElll
libntl.so.44:_ZN3NTL8TraceMapERNS_5GF2EXERKS0_lRKNS_12GF2EXModulusES3_
libntl.so.44:_ZN3NTL8TraceMapERNS_5ZZ_pXERKS0_lRKNS_12ZZ_pXModulusES3_
libntl.so.44:_ZN3NTL8TraceMapERNS_5zz_pXERKS0_lRKNS_12zz_pXModulusES3_
libntl.so.44:_ZN3NTL8TraceMapERNS_6ZZ_pEXERKS0_lRKNS_13ZZ_pEXModulusES3_
libntl.so.44:_ZN3NTL8TraceMapERNS_6zz_pEXERKS0_lRKNS_13zz_pEXModulusES3_
libntl.so.44:_ZN3NTL8TraceModENS_7ref_GF2ERKNS_4GF2XERKNS_11GF2XModulusE
libntl.so.44:_ZN3NTL8TraceModENS_7ref_GF2ERKNS_4GF2XES3_
libntl.so.44:_ZN3NTL8TraceModERNS_2ZZERKNS_3ZZXES4_
libntl.so.44:_ZN3NTL8TraceModERNS_4GF2EERKNS_5GF2EXERKNS_12GF2EXModulusE
libntl.so.44:_ZN3NTL8TraceModERNS_4GF2EERKNS_5GF2EXES4_
libntl.so.44:_ZN3NTL8TraceModERNS_4ZZ_pERKNS_5ZZ_pXERKNS_12ZZ_pXModulusE
libntl.so.44:_ZN3NTL8TraceModERNS_4ZZ_pERKNS_5ZZ_pXES4_
libntl.so.44:_ZN3NTL8TraceModERNS_4zz_pERKNS_5zz_pXERKNS_12zz_pXModulusE
libntl.so.44:_ZN3NTL8TraceModERNS_4zz_pERKNS_5zz_pXES4_
libntl.so.44:_ZN3NTL8TraceModERNS_5ZZ_pEERKNS_6ZZ_pEXERKNS_13ZZ_pEXModulusE
libntl.so.44:_ZN3NTL8TraceModERNS_5ZZ_pEERKNS_6ZZ_pEXES4_
libntl.so.44:_ZN3NTL8TraceModERNS_5zz_pEERKNS_6zz_pEXERKNS_13zz_pEXModulusE
libntl.so.44:_ZN3NTL8TraceModERNS_5zz_pEERKNS_6zz_pEXES4_
libntl.so.44:_ZN3NTL8TraceVecERNS_3VecINS_2ZZEEERKNS_3ZZXE
libntl.so.44:_ZN3NTL8TraceVecERNS_3VecINS_3GF2EEERKNS_4GF2XE
libntl.so.44:_ZN3NTL8TraceVecERNS_3VecINS_4GF2EEEERKNS_5GF2EXE
libntl.so.44:_ZN3NTL8TraceVecERNS_3VecINS_4ZZ_pEEERKNS_5ZZ_pXE
libntl.so.44:_ZN3NTL8TraceVecERNS_3VecINS_4zz_pEEERKNS_5zz_pXE
libntl.so.44:_ZN3NTL8TraceVecERNS_3VecINS_5ZZ_pEEEERKNS_6ZZ_pEXE
libntl.so.44:_ZN3NTL8TraceVecERNS_3VecINS_5zz_pEEEERKNS_6zz_pEXE
libntl.so.44:_ZN3NTL8UniqueIDB5cxx11Ev
libntl.so.44:_ZN3NTL8XHalfGCDERNS_11ZZ_pXMatrixERNS_5ZZ_pXES3_l
libntl.so.44:_ZN3NTL8XHalfGCDERNS_11zz_pXMatrixERNS_5zz_pXES3_l
libntl.so.44:_ZN3NTL8XHalfGCDERNS_16_NTL_GF2EXMatrixERNS_5GF2EXES3_l
libntl.so.44:_ZN3NTL8XHalfGCDERNS_17_NTL_ZZ_pEXMatrixERNS_6ZZ_pEXES3_l
libntl.so.44:_ZN3NTL8XHalfGCDERNS_17_NTL_zz_pEXMatrixERNS_6zz_pEXES3_l
libntl.so.44:_ZN3NTL8ZZ_pEBak4saveEv
libntl.so.44:_ZN3NTL8ZZ_pEBak7restoreEv
libntl.so.44:_ZN3NTL8ZZ_pEBakD1Ev
libntl.so.44:_ZN3NTL8ZZ_pEBakD2Ev
libntl.so.44:_ZN3NTL8ZZ_pInfoE
libntl.so.44:_ZN3NTL8new_ifftEPlPKllRKNS_12FFTPrimeInfoEl
libntl.so.44:_ZN3NTL8zz_pEBak4saveEv
libntl.so.44:_ZN3NTL8zz_pEBak7restoreEv
libntl.so.44:_ZN3NTL8zz_pEBakD1Ev
libntl.so.44:_ZN3NTL8zz_pEBakD2Ev
libntl.so.44:_ZN3NTL8zz_pInfoE
libntl.so.44:_ZN3NTL9AddExpandERNS_6FFTRepERKS0_
libntl.so.44:_ZN3NTL9AddExpandERNS_6fftRepERKS0_
libntl.so.44:_ZN3NTL9CompTowerERNS_5GF2EXERKNS_4GF2XERKNS_13GF2EXArgumentERKNS_12GF2EXModulusE
libntl.so.44:_ZN3NTL9CompTowerERNS_5GF2EXERKNS_4GF2XERKS0_RKNS_12GF2EXModulusE
libntl.so.44:_ZN3NTL9CompTowerERNS_6ZZ_pEXERKNS_5ZZ_pXERKNS_14ZZ_pEXArgumentERKNS_13ZZ_pEXModulusE
libntl.so.44:_ZN3NTL9CompTowerERNS_6ZZ_pEXERKNS_5ZZ_pXERKS0_RKNS_13ZZ_pEXModulusE
libntl.so.44:_ZN3NTL9CompTowerERNS_6zz_pEXERKNS_5zz_pXERKNS_14zz_pEXArgumentERKNS_13zz_pEXModulusE
libntl.so.44:_ZN3NTL9CompTowerERNS_6zz_pEXERKNS_5zz_pXERKS0_RKNS_13zz_pEXModulusE
libntl.so.44:_ZN3NTL9ComputeGSERKNS_3MatINS_2ZZEEERNS0_INS_2RREEERNS_3VecIS5_EE
libntl.so.44:_ZN3NTL9ComputeGSERKNS_3MatINS_2ZZEEERNS0_INS_2RREEES7_RNS_3VecIS5_EESA_lRKS5_lSA_SC_
libntl.so.44:_ZN3NTL9ComputePiERNS_2RRE
libntl.so.44:_ZN3NTL9ConstTermERKNS_3ZZXE
libntl.so.44:_ZN3NTL9ConstTermERKNS_4GF2XE
libntl.so.44:_ZN3NTL9ConstTermERKNS_5GF2EXE
libntl.so.44:_ZN3NTL9ConstTermERKNS_5ZZ_pXE
libntl.so.44:_ZN3NTL9ConstTermERKNS_5zz_pXE
libntl.so.44:_ZN3NTL9ConstTermERKNS_6ZZ_pEXE
libntl.so.44:_ZN3NTL9ConstTermERKNS_6zz_pEXE
libntl.so.44:_ZN3NTL9DeriveKeyEPhlPKhl
libntl.so.44:_ZN3NTL9FFTDivRemERNS_5ZZ_pXES1_RKS0_S3_
libntl.so.44:_ZN3NTL9FFTDivRemERNS_5zz_pXES1_RKS0_S3_
libntl.so.44:_ZN3NTL9FFTTablesE
libntl.so.44:_ZN3NTL9FactorIntERNS_3VecINS_9IntFactorEEEl
libntl.so.44:_ZN3NTL9FindRootsERNS_3VecINS_4GF2EEEERKNS_5GF2EXE
libntl.so.44:_ZN3NTL9FindRootsERNS_3VecINS_4ZZ_pEEERKNS_5ZZ_pXE
libntl.so.44:_ZN3NTL9FindRootsERNS_3VecINS_4zz_pEEERKNS_5zz_pXE
libntl.so.44:_ZN3NTL9FindRootsERNS_3VecINS_5ZZ_pEEEERKNS_6ZZ_pEXE
libntl.so.44:_ZN3NTL9FindRootsERNS_3VecINS_5zz_pEEEERKNS_6zz_pEXE
libntl.so.44:_ZN3NTL9FloorPrecERNS_2RRERKS0_l
libntl.so.44:_ZN3NTL9GF2EInfoTC1ERKNS_4GF2XE
libntl.so.44:_ZN3NTL9GF2EInfoTC2ERKNS_4GF2XE
libntl.so.44:_ZN3NTL9G_BKZ_QP1ERNS_3MatINS_2ZZEEES3_dllPFlRKNS_3VecIS1_EEEl
libntl.so.44:_ZN3NTL9G_BKZ_QP1ERNS_3MatINS_2ZZEEEdllPFlRKNS_3VecIS1_EEEl
libntl.so.44:_ZN3NTL9HomDivideERKNS_3ZZXES2_
libntl.so.44:_ZN3NTL9HomDivideERNS_3ZZXERKS0_S3_
libntl.so.44:_ZN3NTL9InputPrecERNS_2RRERSil
libntl.so.44:_ZN3NTL9IsEOFCharEl
libntl.so.44:_ZN3NTL9IterBuildEPNS_4GF2EEl
libntl.so.44:_ZN3NTL9IterBuildEPNS_4ZZ_pEl
libntl.so.44:_ZN3NTL9IterBuildEPNS_4zz_pEl
libntl.so.44:_ZN3NTL9IterBuildEPNS_5ZZ_pEEl
libntl.so.44:_ZN3NTL9IterBuildEPNS_5zz_pEEl
libntl.so.44:_ZN3NTL9KronSubstERNS_4GF2XERKNS_5GF2EXE
libntl.so.44:_ZN3NTL9LeadCoeffERKNS_3ZZXE
libntl.so.44:_ZN3NTL9LeadCoeffERKNS_4GF2XE
libntl.so.44:_ZN3NTL9LeadCoeffERKNS_5GF2EXE
libntl.so.44:_ZN3NTL9LeadCoeffERKNS_5ZZ_pXE
libntl.so.44:_ZN3NTL9LeadCoeffERKNS_5zz_pXE
libntl.so.44:_ZN3NTL9LeadCoeffERKNS_6ZZ_pEXE
libntl.so.44:_ZN3NTL9LeadCoeffERKNS_6zz_pEXE
libntl.so.44:_ZN3NTL9LeftShiftERNS_3ZZXERKS0_l
libntl.so.44:_ZN3NTL9LeftShiftERNS_4GF2XERKS0_l
libntl.so.44:_ZN3NTL9LeftShiftERNS_5GF2EXERKS0_l
libntl.so.44:_ZN3NTL9LeftShiftERNS_5ZZ_pXERKS0_l
libntl.so.44:_ZN3NTL9LeftShiftERNS_5zz_pXERKS0_l
libntl.so.44:_ZN3NTL9LeftShiftERNS_6ZZ_pEXERKS0_l
libntl.so.44:_ZN3NTL9LeftShiftERNS_6zz_pEXERKS0_l
libntl.so.44:_ZN3NTL9MakeMonicERNS_5GF2EXE
libntl.so.44:_ZN3NTL9MakeMonicERNS_5ZZ_pXE
libntl.so.44:_ZN3NTL9MakeMonicERNS_5zz_pXE
libntl.so.44:_ZN3NTL9MakeMonicERNS_6ZZ_pEXE
libntl.so.44:_ZN3NTL9MakeMonicERNS_6zz_pEXE
libntl.so.44:_ZN3NTL9MulByXModERNS_3ZZXERKS0_S3_
libntl.so.44:_ZN3NTL9MulByXModERNS_4GF2XERKS0_RKNS_11GF2XModulusE
libntl.so.44:_ZN3NTL9MulByXModERNS_4GF2XERKS0_S3_
libntl.so.44:_ZN3NTL9MulByXModERNS_5GF2EXERKS0_S3_
libntl.so.44:_ZN3NTL9MulByXModERNS_5ZZ_pXERKS0_S3_
libntl.so.44:_ZN3NTL9MulByXModERNS_5zz_pXERKS0_S3_
libntl.so.44:_ZN3NTL9MulByXModERNS_6ZZ_pEXERKS0_S3_
libntl.so.44:_ZN3NTL9MulByXModERNS_6zz_pEXERKS0_S3_
libntl.so.44:_ZN3NTL9MultiLiftERNS_3VecINS_3ZZXEEERKNS0_INS_5zz_pXEEERKS1_ll
libntl.so.44:_ZN3NTL9NewtonInvERNS_6ZZ_pEXERKS0_l
libntl.so.44:_ZN3NTL9NewtonInvERNS_6zz_pEXERKS0_l
libntl.so.44:_ZN3NTL9NextPrimeERNS_2ZZERKS0_l
libntl.so.44:_ZN3NTL9NextPrimeEll
libntl.so.44:_ZN3NTL9OpenWriteERSt14basic_ofstreamIcSt11char_traitsIcEEPKc
libntl.so.44:_ZN3NTL9OpenWriteERSt14basic_ofstreamIcSt11char_traitsIcEEPKcRNS_8FileListE
libntl.so.44:_ZN3NTL9PlainXGCDERNS_5ZZ_pXES1_S1_RKS0_S3_
libntl.so.44:_ZN3NTL9PlainXGCDERNS_5zz_pXES1_S1_RKS0_S3_
libntl.so.44:_ZN3NTL9PowerOf10ERKNS_2ZZE
libntl.so.44:_ZN3NTL9PowerXModERNS_4GF2XERKNS_2ZZERKNS_11GF2XModulusE
libntl.so.44:_ZN3NTL9PowerXModERNS_5GF2EXERKNS_2ZZERKNS_12GF2EXModulusE
libntl.so.44:_ZN3NTL9PowerXModERNS_5ZZ_pXERKNS_2ZZERKNS_12ZZ_pXModulusE
libntl.so.44:_ZN3NTL9PowerXModERNS_5zz_pXERKNS_2ZZERKNS_12zz_pXModulusE
libntl.so.44:_ZN3NTL9PowerXModERNS_6ZZ_pEXERKNS_2ZZERKNS_13ZZ_pEXModulusE
libntl.so.44:_ZN3NTL9PowerXModERNS_6zz_pEXERKNS_2ZZERKNS_13zz_pEXModulusE
libntl.so.44:_ZN3NTL9PrintTimeERSod
libntl.so.44:_ZN3NTL9ProbPrimeERKNS_2ZZEl
libntl.so.44:_ZN3NTL9ProbPrimeEll
libntl.so.44:_ZN3NTL9RandomBndERNS_2ZZERKS0_
libntl.so.44:_ZN3NTL9RandomBndEl
libntl.so.44:_ZN3NTL9RandomLenERNS_2ZZEl
libntl.so.44:_ZN3NTL9RoundPrecERNS_2RRERKS0_l
libntl.so.44:_ZN3NTL9RoundToZZERNS_2ZZERKNS_2RRE
libntl.so.44:_ZN3NTL9SFCanZassERNS_3VecINS_4GF2XEEERKS1_l
libntl.so.44:_ZN3NTL9SFCanZassERNS_3VecINS_5GF2EXEEERKS1_l
libntl.so.44:_ZN3NTL9SFCanZassERNS_3VecINS_5ZZ_pXEEERKS1_l
libntl.so.44:_ZN3NTL9SFCanZassERNS_3VecINS_5zz_pXEEERKS1_l
libntl.so.44:_ZN3NTL9SFCanZassERNS_3VecINS_6ZZ_pEXEEERKS1_l
libntl.so.44:_ZN3NTL9SFCanZassERNS_3VecINS_6zz_pEXEEERKS1_l
libntl.so.44:_ZN3NTL9TruncPrecERNS_2RRERKS0_l
libntl.so.44:_ZN3NTL9TruncToZZERNS_2ZZERKNS_2RRE
libntl.so.44:_ZN3NTL9UpdateMapERNS_3VecINS_3GF2EEERKS2_RKNS_19GF2XTransMultiplierERKNS_11GF2XModulusE
libntl.so.44:_ZN3NTL9UpdateMapERNS_3VecINS_4GF2EEEERKS2_RKNS_20GF2EXTransMultiplierERKNS_12GF2EXModulusE
libntl.so.44:_ZN3NTL9UpdateMapERNS_3VecINS_4ZZ_pEEERKS2_RKNS_15ZZ_pXMultiplierERKNS_12ZZ_pXModulusE
libntl.so.44:_ZN3NTL9UpdateMapERNS_3VecINS_4zz_pEEERKS2_RKNS_15zz_pXMultiplierERKNS_12zz_pXModulusE
libntl.so.44:_ZN3NTL9UpdateMapERNS_3VecINS_5ZZ_pEEEERKS2_RKNS_21ZZ_pEXTransMultiplierERKNS_13ZZ_pEXModulusE
libntl.so.44:_ZN3NTL9UpdateMapERNS_3VecINS_5zz_pEEEERKS2_RKNS_21zz_pEXTransMultiplierERKNS_13zz_pEXModulusE
libntl.so.44:_ZN3NTL9UseMulDivERNS_4GF2XERKS0_S3_
libntl.so.44:_ZN3NTL9UseMulDivERNS_5GF2EXERKS0_S3_
libntl.so.44:_ZN3NTL9UseMulDivERNS_6ZZ_pEXERKS0_S3_
libntl.so.44:_ZN3NTL9UseMulDivERNS_6zz_pEXERKS0_S3_
libntl.so.44:_ZN3NTL9UseMulRemERNS_4GF2XERKS0_S3_
libntl.so.44:_ZN3NTL9UseMulRemERNS_5GF2EXERKS0_S3_
libntl.so.44:_ZN3NTL9UseMulRemERNS_6ZZ_pEXERKS0_S3_
libntl.so.44:_ZN3NTL9UseMulRemERNS_6zz_pEXERKS0_S3_
libntl.so.44:_ZN3NTL9ZZ_pEInfoE
libntl.so.44:_ZN3NTL9ZZ_pInfoTC1ERKNS_2ZZE
libntl.so.44:_ZN3NTL9ZZ_pInfoTC2ERKNS_2ZZE
libntl.so.44:_ZN3NTL9berlekampERNS_3VecINS_4PairINS_5GF2EXElEEEERKS2_l
libntl.so.44:_ZN3NTL9berlekampERNS_3VecINS_4PairINS_5ZZ_pXElEEEERKS2_l
libntl.so.44:_ZN3NTL9berlekampERNS_3VecINS_4PairINS_5zz_pXElEEEERKS2_l
libntl.so.44:_ZN3NTL9normalizeERNS_2RRERKS0_l
libntl.so.44:_ZN3NTL9plain_mulERNS_3MatINS_4ZZ_pEEERKS2_S5_
libntl.so.44:_ZN3NTL9resultantERNS_2ZZERKNS_3ZZXES4_l
libntl.so.44:_ZN3NTL9resultantERNS_4GF2EERKNS_5GF2EXES4_
libntl.so.44:_ZN3NTL9resultantERNS_4ZZ_pERKNS_5ZZ_pXES4_
libntl.so.44:_ZN3NTL9resultantERNS_4zz_pERKNS_5zz_pXES4_
libntl.so.44:_ZN3NTL9resultantERNS_5ZZ_pEERKNS_6ZZ_pEXES4_
libntl.so.44:_ZN3NTL9resultantERNS_5zz_pEERKNS_6zz_pEXES4_
libntl.so.44:_ZN3NTL9transposeERNS_3MatINS_2RREEERKS2_
libntl.so.44:_ZN3NTL9transposeERNS_3MatINS_2ZZEEERKS2_
libntl.so.44:_ZN3NTL9transposeERNS_3MatINS_3GF2EEERKS2_
libntl.so.44:_ZN3NTL9transposeERNS_3MatINS_4GF2EEEERKS2_
libntl.so.44:_ZN3NTL9transposeERNS_3MatINS_4ZZ_pEEERKS2_
libntl.so.44:_ZN3NTL9transposeERNS_3MatINS_4zz_pEEERKS2_
libntl.so.44:_ZN3NTL9transposeERNS_3MatINS_5ZZ_pEEEERKS2_
libntl.so.44:_ZN3NTL9transposeERNS_3MatINS_5zz_pEEEERKS2_
libntl.so.44:_ZN3NTL9zz_pEInfoE
libntl.so.44:_ZN3NTL9zz_pInfoTC1ERKNS_15INIT_FFT_STRUCTEPNS_12FFTPrimeInfoE
libntl.so.44:_ZN3NTL9zz_pInfoTC1ERKNS_20INIT_USER_FFT_STRUCTEl
libntl.so.44:_ZN3NTL9zz_pInfoTC1Ell
libntl.so.44:_ZN3NTL9zz_pInfoTC2ERKNS_15INIT_FFT_STRUCTEPNS_12FFTPrimeInfoE
libntl.so.44:_ZN3NTL9zz_pInfoTC2ERKNS_20INIT_USER_FFT_STRUCTEl
libntl.so.44:_ZN3NTL9zz_pInfoTC2Ell
libntl.so.44:_ZN3NTLdvERKNS_7xdoubleES2_
libntl.so.44:_ZN3NTLeqERKNS_10WordVectorES2_
libntl.so.44:_ZN3NTLeqERKNS_10quad_floatES2_
libntl.so.44:_ZN3NTLeqERKNS_2RRES2_
libntl.so.44:_ZN3NTLeqERKNS_2RREd
libntl.so.44:_ZN3NTLeqERKNS_3VecINS_3GF2EEES4_
libntl.so.44:_ZN3NTLeqERKNS_3ZZXERKNS_2ZZE
libntl.so.44:_ZN3NTLeqERKNS_3ZZXES2_
libntl.so.44:_ZN3NTLeqERKNS_3ZZXEl
libntl.so.44:_ZN3NTLeqERKNS_4GF2XENS_3GF2E
libntl.so.44:_ZN3NTLeqERKNS_4GF2XES2_
libntl.so.44:_ZN3NTLeqERKNS_4GF2XEl
libntl.so.44:_ZN3NTLeqERKNS_4ZZ_pEl
libntl.so.44:_ZN3NTLeqERKNS_5GF2EXENS_3GF2E
libntl.so.44:_ZN3NTLeqERKNS_5GF2EXERKNS_4GF2EE
libntl.so.44:_ZN3NTLeqERKNS_5GF2EXEl
libntl.so.44:_ZN3NTLeqERKNS_5ZZ_pXERKNS_4ZZ_pE
libntl.so.44:_ZN3NTLeqERKNS_5ZZ_pXEl
libntl.so.44:_ZN3NTLeqERKNS_5zz_pXENS_4zz_pE
libntl.so.44:_ZN3NTLeqERKNS_5zz_pXEl
libntl.so.44:_ZN3NTLeqERKNS_6ZZ_pEXERKNS_4ZZ_pE
libntl.so.44:_ZN3NTLeqERKNS_6ZZ_pEXERKNS_5ZZ_pEE
libntl.so.44:_ZN3NTLeqERKNS_6ZZ_pEXEl
libntl.so.44:_ZN3NTLeqERKNS_6zz_pEXERKNS_4zz_pE
libntl.so.44:_ZN3NTLeqERKNS_6zz_pEXERKNS_5zz_pEE
libntl.so.44:_ZN3NTLeqERKNS_6zz_pEXEl
libntl.so.44:_ZN3NTLgeERKNS_10quad_floatES2_
libntl.so.44:_ZN3NTLgtERKNS_10quad_floatES2_
libntl.so.44:_ZN3NTLleERKNS_10quad_floatES2_
libntl.so.44:_ZN3NTLlsERSoNS_3GF2E
libntl.so.44:_ZN3NTLlsERSoNS_4zz_pE
libntl.so.44:_ZN3NTLlsERSoRKNS_10WordVectorE
libntl.so.44:_ZN3NTLlsERSoRKNS_10quad_floatE
libntl.so.44:_ZN3NTLlsERSoRKNS_2RRE
libntl.so.44:_ZN3NTLlsERSoRKNS_2ZZE
libntl.so.44:_ZN3NTLlsERSoRKNS_3VecINS_3GF2EEE
libntl.so.44:_ZN3NTLlsERSoRKNS_3ZZXE
libntl.so.44:_ZN3NTLlsERSoRKNS_4GF2XE
libntl.so.44:_ZN3NTLlsERSoRKNS_5GF2EXE
libntl.so.44:_ZN3NTLlsERSoRKNS_5ZZ_pXE
libntl.so.44:_ZN3NTLlsERSoRKNS_5zz_pXE
libntl.so.44:_ZN3NTLlsERSoRKNS_6ZZ_pEXE
libntl.so.44:_ZN3NTLlsERSoRKNS_6zz_pEXE
libntl.so.44:_ZN3NTLlsERSoRKNS_7xdoubleE
libntl.so.44:_ZN3NTLltERKNS_10quad_floatES2_
libntl.so.44:_ZN3NTLmiERKNS_3MatINS_2RREEES4_
libntl.so.44:_ZN3NTLmiERKNS_3MatINS_2ZZEEES4_
libntl.so.44:_ZN3NTLmiERKNS_3MatINS_3GF2EEES4_
libntl.so.44:_ZN3NTLmiERKNS_3MatINS_4GF2EEEES4_
libntl.so.44:_ZN3NTLmiERKNS_3MatINS_4ZZ_pEEES4_
libntl.so.44:_ZN3NTLmiERKNS_3MatINS_4zz_pEEES4_
libntl.so.44:_ZN3NTLmiERKNS_3MatINS_5ZZ_pEEEES4_
libntl.so.44:_ZN3NTLmiERKNS_3MatINS_5zz_pEEEES4_
libntl.so.44:_ZN3NTLmiERKNS_3VecINS_2RREEES4_
libntl.so.44:_ZN3NTLmiERKNS_3VecINS_2ZZEEES4_
libntl.so.44:_ZN3NTLmiERKNS_3VecINS_3GF2EEES4_
libntl.so.44:_ZN3NTLmiERKNS_3VecINS_4GF2EEEES4_
libntl.so.44:_ZN3NTLmiERKNS_3VecINS_4ZZ_pEEES4_
libntl.so.44:_ZN3NTLmiERKNS_3VecINS_4zz_pEEES4_
libntl.so.44:_ZN3NTLmiERKNS_3VecINS_5ZZ_pEEEES4_
libntl.so.44:_ZN3NTLmiERKNS_3VecINS_5zz_pEEEES4_
libntl.so.44:_ZN3NTLmiERKNS_7xdoubleES2_
libntl.so.44:_ZN3NTLmlERKNS_3MatINS_2RREEERKNS_3VecIS1_EE
libntl.so.44:_ZN3NTLmlERKNS_3MatINS_2RREEES4_
libntl.so.44:_ZN3NTLmlERKNS_3MatINS_2ZZEEERKNS_3VecIS1_EE
libntl.so.44:_ZN3NTLmlERKNS_3MatINS_2ZZEEES4_
libntl.so.44:_ZN3NTLmlERKNS_3MatINS_3GF2EEERKNS_3VecIS1_EE
libntl.so.44:_ZN3NTLmlERKNS_3MatINS_3GF2EEES4_
libntl.so.44:_ZN3NTLmlERKNS_3MatINS_4GF2EEEERKNS_3VecIS1_EE
libntl.so.44:_ZN3NTLmlERKNS_3MatINS_4GF2EEEES4_
libntl.so.44:_ZN3NTLmlERKNS_3MatINS_4ZZ_pEEERKNS_3VecIS1_EE
libntl.so.44:_ZN3NTLmlERKNS_3MatINS_4ZZ_pEEES4_
libntl.so.44:_ZN3NTLmlERKNS_3MatINS_4zz_pEEERKNS_3VecIS1_EE
libntl.so.44:_ZN3NTLmlERKNS_3MatINS_4zz_pEEES4_
libntl.so.44:_ZN3NTLmlERKNS_3MatINS_5ZZ_pEEEERKNS_3VecIS1_EE
libntl.so.44:_ZN3NTLmlERKNS_3MatINS_5ZZ_pEEEES4_
libntl.so.44:_ZN3NTLmlERKNS_3MatINS_5zz_pEEEERKNS_3VecIS1_EE
libntl.so.44:_ZN3NTLmlERKNS_3MatINS_5zz_pEEEES4_
libntl.so.44:_ZN3NTLmlERKNS_3VecINS_2RREEERKNS_3MatIS1_EE
libntl.so.44:_ZN3NTLmlERKNS_3VecINS_2RREEES4_
libntl.so.44:_ZN3NTLmlERKNS_3VecINS_2ZZEEERKNS_3MatIS1_EE
libntl.so.44:_ZN3NTLmlERKNS_3VecINS_2ZZEEES4_
libntl.so.44:_ZN3NTLmlERKNS_3VecINS_3GF2EEERKNS_3MatIS1_EE
libntl.so.44:_ZN3NTLmlERKNS_3VecINS_4GF2EEEERKNS_3MatIS1_EE
libntl.so.44:_ZN3NTLmlERKNS_3VecINS_4GF2EEEES4_
libntl.so.44:_ZN3NTLmlERKNS_3VecINS_4ZZ_pEEERKNS_3MatIS1_EE
libntl.so.44:_ZN3NTLmlERKNS_3VecINS_4ZZ_pEEES4_
libntl.so.44:_ZN3NTLmlERKNS_3VecINS_4zz_pEEERKNS_3MatIS1_EE
libntl.so.44:_ZN3NTLmlERKNS_3VecINS_4zz_pEEES4_
libntl.so.44:_ZN3NTLmlERKNS_3VecINS_5ZZ_pEEEERKNS_3MatIS1_EE
libntl.so.44:_ZN3NTLmlERKNS_3VecINS_5ZZ_pEEEES4_
libntl.so.44:_ZN3NTLmlERKNS_3VecINS_5zz_pEEEERKNS_3MatIS1_EE
libntl.so.44:_ZN3NTLmlERKNS_3VecINS_5zz_pEEEES4_
libntl.so.44:_ZN3NTLmlERKNS_7xdoubleES2_
libntl.so.44:_ZN3NTLneERKNS_10WordVectorES2_
libntl.so.44:_ZN3NTLneERKNS_10quad_floatES2_
libntl.so.44:_ZN3NTLngERKNS_3MatINS_2RREEE
libntl.so.44:_ZN3NTLngERKNS_3MatINS_2ZZEEE
libntl.so.44:_ZN3NTLngERKNS_3MatINS_4GF2EEEE
libntl.so.44:_ZN3NTLngERKNS_3MatINS_4ZZ_pEEE
libntl.so.44:_ZN3NTLngERKNS_3MatINS_4zz_pEEE
libntl.so.44:_ZN3NTLngERKNS_3MatINS_5ZZ_pEEEE
libntl.so.44:_ZN3NTLngERKNS_3MatINS_5zz_pEEEE
libntl.so.44:_ZN3NTLngERKNS_3VecINS_2RREEE
libntl.so.44:_ZN3NTLngERKNS_3VecINS_2ZZEEE
libntl.so.44:_ZN3NTLngERKNS_3VecINS_4GF2EEEE
libntl.so.44:_ZN3NTLngERKNS_3VecINS_4ZZ_pEEE
libntl.so.44:_ZN3NTLngERKNS_3VecINS_4zz_pEEE
libntl.so.44:_ZN3NTLngERKNS_3VecINS_5ZZ_pEEEE
libntl.so.44:_ZN3NTLngERKNS_3VecINS_5zz_pEEEE
libntl.so.44:_ZN3NTLngERKNS_7xdoubleE
libntl.so.44:_ZN3NTLplERKNS_3MatINS_2RREEES4_
libntl.so.44:_ZN3NTLplERKNS_3MatINS_2ZZEEES4_
libntl.so.44:_ZN3NTLplERKNS_3MatINS_3GF2EEES4_
libntl.so.44:_ZN3NTLplERKNS_3MatINS_4GF2EEEES4_
libntl.so.44:_ZN3NTLplERKNS_3MatINS_4ZZ_pEEES4_
libntl.so.44:_ZN3NTLplERKNS_3MatINS_4zz_pEEES4_
libntl.so.44:_ZN3NTLplERKNS_3MatINS_5ZZ_pEEEES4_
libntl.so.44:_ZN3NTLplERKNS_3MatINS_5zz_pEEEES4_
libntl.so.44:_ZN3NTLplERKNS_3VecINS_2RREEES4_
libntl.so.44:_ZN3NTLplERKNS_3VecINS_2ZZEEES4_
libntl.so.44:_ZN3NTLplERKNS_3VecINS_3GF2EEES4_
libntl.so.44:_ZN3NTLplERKNS_3VecINS_4GF2EEEES4_
libntl.so.44:_ZN3NTLplERKNS_3VecINS_4ZZ_pEEES4_
libntl.so.44:_ZN3NTLplERKNS_3VecINS_4zz_pEEES4_
libntl.so.44:_ZN3NTLplERKNS_3VecINS_5ZZ_pEEEES4_
libntl.so.44:_ZN3NTLplERKNS_3VecINS_5zz_pEEEES4_
libntl.so.44:_ZN3NTLplERKNS_7xdoubleES2_
libntl.so.44:_ZN3NTLrsERSiNS_7ref_GF2E
libntl.so.44:_ZN3NTLrsERSiRNS_10WordVectorE
libntl.so.44:_ZN3NTLrsERSiRNS_10quad_floatE
libntl.so.44:_ZN3NTLrsERSiRNS_2RRE
libntl.so.44:_ZN3NTLrsERSiRNS_2ZZE
libntl.so.44:_ZN3NTLrsERSiRNS_3VecINS_3GF2EEE
libntl.so.44:_ZN3NTLrsERSiRNS_3ZZXE
libntl.so.44:_ZN3NTLrsERSiRNS_4GF2EE
libntl.so.44:_ZN3NTLrsERSiRNS_4GF2XE
libntl.so.44:_ZN3NTLrsERSiRNS_4ZZ_pE
libntl.so.44:_ZN3NTLrsERSiRNS_4zz_pE
libntl.so.44:_ZN3NTLrsERSiRNS_5GF2EXE
libntl.so.44:_ZN3NTLrsERSiRNS_5ZZ_pEE
libntl.so.44:_ZN3NTLrsERSiRNS_5ZZ_pXE
libntl.so.44:_ZN3NTLrsERSiRNS_5zz_pEE
libntl.so.44:_ZN3NTLrsERSiRNS_5zz_pXE
libntl.so.44:_ZN3NTLrsERSiRNS_6ZZ_pEXE
libntl.so.44:_ZN3NTLrsERSiRNS_6zz_pEXE
libntl.so.44:_ZN3NTLrsERSiRNS_7xdoubleE
libntl.so.44:_ZNK3NTL11GF2EContext7restoreEv
libntl.so.44:_ZNK3NTL11ZZ_pContext7restoreEv
libntl.so.44:_ZNK3NTL11zz_pContext7restoreEv
libntl.so.44:_ZNK3NTL12ZZ_pEContext7restoreEv
libntl.so.44:_ZNK3NTL12zz_pEContext7restoreEv
libntl.so.44:_ZNK3NTL16NewFastCRTHelper10reduce_auxERKNS_2ZZEPlRNS_23NewFastCRTHelperScratchEll
libntl.so.44:_ZNK3NTL16NewFastCRTHelper11reconstructERNS_2ZZEPKlRNS_23NewFastCRTHelperScratchE
libntl.so.44:_ZNK3NTL16NewFastCRTHelper12init_scratchERNS_23NewFastCRTHelperScratchE
libntl.so.44:_ZNK3NTL16NewFastCRTHelper15reconstruct_auxERNS_2ZZEPKlRNS_23NewFastCRTHelperScratchEll
libntl.so.44:_ZNK3NTL16NewFastCRTHelper6reduceERKNS_2ZZEPlRNS_23NewFastCRTHelperScratchE
libntl.so.44:_ntl_BasicThreadPool_dummy_symbol
libntl.so.44:_ntl_ldexp_zero
