liblinbox.so.0:_Z11getListArgsRNSt7__cxx114listIiSaIiEEERNS_12basic_stringIcSt11char_traitsIcESaIcEEE
liblinbox.so.0:_Z12findArgumentP8Argumentc
liblinbox.so.0:_Z16printHelpMessagePKcP8Argumentb
liblinbox.so.0:_Z6foobarv
liblinbox.so.0:_ZN5FFLAS14parseArgumentsEiPPcP8Argumentb
liblinbox.so.0:_ZN5FFLAS16getArgumentValueEiPPci
liblinbox.so.0:_ZN5FFLAS18writeCommandStringERSoP8ArgumentPKc
liblinbox.so.0:_ZN6LinBox10OrderBasisIN6Givaro7ModularIN6RecInt5ruintILm7EEENS4_ILm8EEEvEENS_9EarlyTermILm18446744073709551615EEEE7M_BasisERNS_16PolynomialMatrixIS7_LNS_6PMTypeE0EEERKSD_mRSt6vectorImSaImEE
liblinbox.so.0:_ZN6LinBox11Commentator11setMaxDepthEl
liblinbox.so.0:_ZN6LinBox11Commentator14startIterationEjm
liblinbox.so.0:_ZN6LinBox11Commentator15getMessageClassEPKc
liblinbox.so.0:_ZN6LinBox11Commentator15setReportStreamERSo
liblinbox.so.0:_ZN6LinBox11Commentator17cloneMessageClassEPKcS2_
liblinbox.so.0:_ZN6LinBox11Commentator17cloneMessageClassEPKcS2_RSo
liblinbox.so.0:_ZN6LinBox11Commentator17setMaxDetailLevelEl
liblinbox.so.0:_ZN6LinBox11Commentator18setPrintParametersEmmPKc
liblinbox.so.0:_ZN6LinBox11Commentator19printActivityReportERNS0_8ActivityE
liblinbox.so.0:_ZN6LinBox11Commentator20finishActivityReportERNS0_8ActivityEPKc
liblinbox.so.0:_ZN6LinBox11Commentator20registerMessageClassEPKcRSomm
liblinbox.so.0:_ZN6LinBox11Commentator20restoreActivityStateENS_13ActivityStateE
liblinbox.so.0:_ZN6LinBox11Commentator20setBriefReportStreamERSo
liblinbox.so.0:_ZN6LinBox11Commentator20setDefaultReportFileEPKc
liblinbox.so.0:_ZN6LinBox11Commentator20updateActivityReportERNS0_8ActivityE
liblinbox.so.0:_ZN6LinBox11Commentator21setMessageClassStreamEPKcRSo
liblinbox.so.0:_ZN6LinBox11Commentator24setBriefReportParametersENS0_12OutputFormatEbbb
liblinbox.so.0:_ZN6LinBox11Commentator4stopEPKcS2_S2_
liblinbox.so.0:_ZN6LinBox11Commentator5startENSt7__cxx1112basic_stringIcSt11char_traitsIcESaIcEEEPKcm
liblinbox.so.0:_ZN6LinBox11Commentator5startEPKcS2_m
liblinbox.so.0:_ZN6LinBox11Commentator6reportElPKc
liblinbox.so.0:_ZN6LinBox11Commentator8progressEll
liblinbox.so.0:_ZN6LinBox11Commentator9isPrintedEmmPKcS2_
liblinbox.so.0:_ZN6LinBox11CommentatorC1ERSo
liblinbox.so.0:_ZN6LinBox11CommentatorC1Ev
liblinbox.so.0:_ZN6LinBox11CommentatorC2ERSo
liblinbox.so.0:_ZN6LinBox11CommentatorC2Ev
liblinbox.so.0:_ZN6LinBox11CommentatorD0Ev
liblinbox.so.0:_ZN6LinBox11CommentatorD1Ev
liblinbox.so.0:_ZN6LinBox11CommentatorD2Ev
liblinbox.so.0:_ZN6LinBox11commentatorERSo
liblinbox.so.0:_ZN6LinBox11commentatorEv
liblinbox.so.0:_ZN6LinBox11getFFTPrimeEmmN6Givaro7IntegerERSt6vectorIS1_SaIS1_EEmm
liblinbox.so.0:_ZN6LinBox12MessageClass11checkConfigERNSt7__cxx114listISt4pairImmESaIS4_EEEmm
liblinbox.so.0:_ZN6LinBox12MessageClass11setMaxDepthEl
liblinbox.so.0:_ZN6LinBox12MessageClass14smartStreambuf4syncEv
liblinbox.so.0:_ZN6LinBox12MessageClass14smartStreambuf6xsputnEPKcl
liblinbox.so.0:_ZN6LinBox12MessageClass14smartStreambuf8overflowEi
liblinbox.so.0:_ZN6LinBox12MessageClass14smartStreambuf9writeDataEPKcl
liblinbox.so.0:_ZN6LinBox12MessageClass16fixDefaultConfigEv
liblinbox.so.0:_ZN6LinBox12MessageClass17setMaxDetailLevelEl
liblinbox.so.0:_ZN6LinBox12MessageClass18setPrintParametersEmmPKc
liblinbox.so.0:_ZN6LinBox12MessageClass9isPrintedEmmPKc
liblinbox.so.0:_ZN6LinBox12MessageClassC1ERKNS_11CommentatorEPKcRSoSt3mapIS5_NSt7__cxx114listISt4pairImmESaISB_EEESt4lessIS5_ESaISA_IKS5_SD_EEE
liblinbox.so.0:_ZN6LinBox12MessageClassC1ERKNS_11CommentatorEPKcRSomm
liblinbox.so.0:_ZN6LinBox12MessageClassC2ERKNS_11CommentatorEPKcRSoSt3mapIS5_NSt7__cxx114listISt4pairImmESaISB_EEESt4lessIS5_ESaISA_IKS5_SD_EEE
liblinbox.so.0:_ZN6LinBox12MessageClassC2ERKNS_11CommentatorEPKcRSomm
liblinbox.so.0:_ZN6LinBox13PrimeIteratorINS_18IteratorCategories10UniformTagEE13generatePrimeEv
liblinbox.so.0:_ZN6LinBox13PrimeIteratorINS_18IteratorCategories12HeuristicTagEE13generatePrimeEv
liblinbox.so.0:_ZN6LinBox13PrimeIteratorINS_18IteratorCategories16DeterministicTagEE13generatePrimeEv
liblinbox.so.0:_ZN6LinBox14parseArgumentsEiPPcP8Argumentb
liblinbox.so.0:_ZN6LinBox15MersenneTwister12randomDoubleEv
liblinbox.so.0:_ZN6LinBox15MersenneTwister14randomIntRangeEjj
liblinbox.so.0:_ZN6LinBox15MersenneTwister6reloadEv
liblinbox.so.0:_ZN6LinBox15MersenneTwister7setSeedEj
liblinbox.so.0:_ZN6LinBox15MersenneTwister9randomIntEv
liblinbox.so.0:_ZN6LinBox15MersenneTwisterC1Ej
liblinbox.so.0:_ZN6LinBox15MersenneTwisterC2Ej
liblinbox.so.0:_ZN6LinBox15element_storageIN6Givaro7ModularINS1_7IntegerES3_vEEEEmRKT_
liblinbox.so.0:_ZN6LinBox16maxFFTPrimeValueEmm
liblinbox.so.0:_ZN6LinBox17NotImplementedYet12_errorStreamE
liblinbox.so.0:_ZN6LinBox18PreconditionFailed12_errorStreamE
liblinbox.so.0:_ZN6LinBox18PreconditionFailed14setErrorStreamERSo
liblinbox.so.0:_ZN6LinBox18solverReturnStringE
liblinbox.so.0:_ZN6LinBox19MaskedPrimeIteratorINS_18IteratorCategories10UniformTagEE13generatePrimeEv
liblinbox.so.0:_ZN6LinBox19MaskedPrimeIteratorINS_18IteratorCategories12HeuristicTagEE13generatePrimeEv
liblinbox.so.0:_ZN6LinBox19MaskedPrimeIteratorINS_18IteratorCategories16DeterministicTagEE13generatePrimeEv
liblinbox.so.0:_ZN6LinBox20equalCaseInsensitiveERKNSt7__cxx1112basic_stringIcSt11char_traitsIcESaIcEEEPKc
liblinbox.so.0:_ZN6LinBox26MultiplyDeBruijnHighestBitEj
liblinbox.so.0:_ZN6LinBox5nrootEdld
liblinbox.so.0:_ZN6LinBox8NumBytesERKN6Givaro7IntegerE
liblinbox.so.0:_ZN6LinBox8isnpowerERll
liblinbox.so.0:_ZN6LinBoxlsERSoRKNS_11LinboxErrorE
liblinbox.so.0:_ZNK6LinBox11Commentator6indentERSo
liblinbox.so.0:_ZNK6LinBox12MessageClass10dumpConfigEv
