libgivaro.so.9:_ZN6Givaro10GivaroMain14DisplayVersionERSo
libgivaro.so.9:_ZN6Givaro10GivaroMain14DisplayVersionEv
libgivaro.so.9:_ZN6Givaro10GivaroMain3EndEv
libgivaro.so.9:_ZN6Givaro10GivaroMain4InitEPiPPPc
libgivaro.so.9:_ZN6Givaro10GivaroMain4InitEv
libgivaro.so.9:_ZN6Givaro10GivaroMain7VersionB5cxx11Ev
libgivaro.so.9:_ZN6Givaro10ObjectInitC1Ev
libgivaro.so.9:_ZN6Givaro10ObjectInitC2Ev
libgivaro.so.9:_ZN6Givaro10ObjectInitD0Ev
libgivaro.so.9:_ZN6Givaro10ObjectInitD1Ev
libgivaro.so.9:_ZN6Givaro10ObjectInitD2Ev
libgivaro.so.9:_ZN6Givaro10absCompareERKNS_7IntegerES2_
libgivaro.so.9:_ZN6Givaro10absCompareERKNS_7IntegerEd
libgivaro.so.9:_ZN6Givaro10absCompareERKNS_7IntegerEf
libgivaro.so.9:_ZN6Givaro10absCompareERKNS_7IntegerEi
libgivaro.so.9:_ZN6Givaro10absCompareERKNS_7IntegerEj
libgivaro.so.9:_ZN6Givaro10absCompareERKNS_7IntegerEl
libgivaro.so.9:_ZN6Givaro10absCompareERKNS_7IntegerEm
libgivaro.so.9:_ZN6Givaro10absCompareERKNS_8RationalES2_
libgivaro.so.9:_ZN6Givaro10naturallogERKNS_7IntegerE
libgivaro.so.9:_ZN6Givaro11GivaroAppli3runEiPPc
libgivaro.so.9:_ZN6Givaro11IntPrimeDom2IPE
libgivaro.so.9:_ZN6Givaro11IntPrimeDom2TPE
libgivaro.so.9:_ZN6Givaro11IntPrimeDom3IP2E
libgivaro.so.9:_ZN6Givaro11IntPrimeDom3TP2E
libgivaro.so.9:_ZN6Givaro12BlocFreeList7TabFreeE
libgivaro.so.9:_ZN6Givaro12BlocFreeList7TabSizeE
libgivaro.so.9:_ZN6Givaro12BlocFreeList9lenTablesE
libgivaro.so.9:_ZN6Givaro12GivBadFormatD0Ev
libgivaro.so.9:_ZN6Givaro12GivBadFormatD1Ev
libgivaro.so.9:_ZN6Givaro12GivBadFormatD2Ev
libgivaro.so.9:_ZN6Givaro12GivMathErrorD0Ev
libgivaro.so.9:_ZN6Givaro12GivMathErrorD1Ev
libgivaro.so.9:_ZN6Givaro12GivMathErrorD2Ev
libgivaro.so.9:_ZN6Givaro13GivMMFreeList3EndEv
libgivaro.so.9:_ZN6Givaro13GivMMFreeList4InitEPiPPPc
libgivaro.so.9:_ZN6Givaro13GivMMFreeList4infoE
libgivaro.so.9:_ZN6Givaro13GivMMFreeList5UsageEv
libgivaro.so.9:_ZN6Givaro13GivMMFreeList6ModuleE
libgivaro.so.9:_ZN6Givaro13GivMMFreeList6memcpyEPvPKvm
libgivaro.so.9:_ZN6Givaro13GivMMFreeList6resizeEPvmm
libgivaro.so.9:_ZN6Givaro13GivMMFreeList6tablogE
libgivaro.so.9:_ZN6Givaro13GivMMFreeList6tabphyE
libgivaro.so.9:_ZN6Givaro13GivMMFreeList7DestroyEv
libgivaro.so.9:_ZN6Givaro13GivMMFreeList8logallocE
libgivaro.so.9:_ZN6Givaro13GivMMFreeList9_allocateEm
libgivaro.so.9:_ZN6Givaro13GivMMFreeList9physallocE
libgivaro.so.9:_ZN6Givaro13GivMMRefCount6resizeEPvmm
libgivaro.so.9:_ZN6Givaro14GivMathDivZeroD0Ev
libgivaro.so.9:_ZN6Givaro14GivMathDivZeroD1Ev
libgivaro.so.9:_ZN6Givaro14GivMathDivZeroD2Ev
libgivaro.so.9:_ZN6Givaro14isperfectpowerERKNS_7IntegerE
libgivaro.so.9:_ZN6Givaro2ppERKNS_7IntegerES2_
libgivaro.so.9:_ZN6Givaro3absERKNS_7IntegerE
libgivaro.so.9:_ZN6Givaro3gcdERKNS_7IntegerES2_
libgivaro.so.9:_ZN6Givaro3gcdERNS_7IntegerERKS0_S3_
libgivaro.so.9:_ZN6Givaro3gcdERNS_7IntegerES1_RKS0_S3_
libgivaro.so.9:_ZN6Givaro3gcdERNS_7IntegerES1_S1_RKS0_S3_
libgivaro.so.9:_ZN6Givaro3invERNS_7IntegerERKS0_S3_
libgivaro.so.9:_ZN6Givaro3lcmERKNS_7IntegerES2_
libgivaro.so.9:_ZN6Givaro3lcmERNS_7IntegerERKS0_S3_
libgivaro.so.9:_ZN6Givaro3powERKNS_7IntegerEl
libgivaro.so.9:_ZN6Givaro3powERKNS_7IntegerEm
libgivaro.so.9:_ZN6Givaro3powERKNS_8RationalEl
libgivaro.so.9:_ZN6Givaro3powERNS_7IntegerERKS0_l
libgivaro.so.9:_ZN6Givaro3powERNS_7IntegerERKS0_m
libgivaro.so.9:_ZN6Givaro3powERNS_7IntegerEmm
libgivaro.so.9:_ZN6Givaro4Bits3EndEv
libgivaro.so.9:_ZN6Givaro4Bits3setEi
libgivaro.so.9:_ZN6Givaro4Bits3setEv
libgivaro.so.9:_ZN6Givaro4Bits4InitEPiPPPc
libgivaro.so.9:_ZN6Givaro4Bits4orinERKS0_S0_
libgivaro.so.9:_ZN6Givaro4Bits5andinERKS0_S0_
libgivaro.so.9:_ZN6Givaro4Bits5clearEi
libgivaro.so.9:_ZN6Givaro4Bits5clearEv
libgivaro.so.9:_ZN6Givaro4Bits5notinERKS0_
libgivaro.so.9:_ZN6Givaro4Bits5xorinERKS0_S0_
libgivaro.so.9:_ZN6Givaro4Bits6ModuleE
libgivaro.so.9:_ZN6Givaro4BitsC1ERKNS_6Array0ImEE
libgivaro.so.9:_ZN6Givaro4BitsC1ERKS0_
libgivaro.so.9:_ZN6Givaro4BitsC1Em
libgivaro.so.9:_ZN6Givaro4BitsC1Ev
libgivaro.so.9:_ZN6Givaro4BitsC2ERKNS_6Array0ImEE
libgivaro.so.9:_ZN6Givaro4BitsC2ERKS0_
libgivaro.so.9:_ZN6Givaro4BitsC2Em
libgivaro.so.9:_ZN6Givaro4BitsC2Ev
libgivaro.so.9:_ZN6Givaro4BitsD1Ev
libgivaro.so.9:_ZN6Givaro4BitsD2Ev
libgivaro.so.9:_ZN6Givaro4BitsaNERKS0_
libgivaro.so.9:_ZN6Givaro4BitseOERKS0_
libgivaro.so.9:_ZN6Givaro4BitsoRERKS0_
libgivaro.so.9:_ZN6Givaro4ceilERKNS_8RationalE
libgivaro.so.9:_ZN6Givaro4factEm
libgivaro.so.9:_ZN6Givaro4logpERKNS_7IntegerES2_
libgivaro.so.9:_ZN6Givaro4rootERNS_7IntegerERKS0_j
libgivaro.so.9:_ZN6Givaro4sqrtERKNS_7IntegerE
libgivaro.so.9:_ZN6Givaro4sqrtERNS_7IntegerERKS0_
libgivaro.so.9:_ZN6Givaro4swapERNS_7IntegerES1_
libgivaro.so.9:_ZN6Givaro5Timer4stopEv
libgivaro.so.9:_ZN6Givaro5Timer5clearEv
libgivaro.so.9:_ZN6Givaro5Timer5startEv
libgivaro.so.9:_ZN6Givaro5TimeraSERKS0_
libgivaro.so.9:_ZN6Givaro5TimerngEv
libgivaro.so.9:_ZN6Givaro5floorERKNS_8RationalE
libgivaro.so.9:_ZN6Givaro5invinERNS_7IntegerERKS0_
libgivaro.so.9:_ZN6Givaro5isOddERKNS_7IntegerE
libgivaro.so.9:_ZN6Givaro5isOneERKNS_7IntegerE
libgivaro.so.9:_ZN6Givaro5roundERKNS_8RationalE
libgivaro.so.9:_ZN6Givaro5truncERKNS_8RationalE
libgivaro.so.9:_ZN6Givaro6Degree8deginftyE
libgivaro.so.9:_ZN6Givaro6isMOneERKNS_7IntegerE
libgivaro.so.9:_ZN6Givaro6isZeroERKNS_7IntegerE
libgivaro.so.9:_ZN6Givaro6isZeroEi
libgivaro.so.9:_ZN6Givaro6isZeroEj
libgivaro.so.9:_ZN6Givaro6isZeroEl
libgivaro.so.9:_ZN6Givaro6isZeroEm
libgivaro.so.9:_ZN6Givaro6isZeroEs
libgivaro.so.9:_ZN6Givaro6isZeroEt
libgivaro.so.9:_ZN6Givaro6jacobiERKNS_7IntegerES2_
libgivaro.so.9:_ZN6Givaro6lengthERKNS_7IntegerE
libgivaro.so.9:_ZN6Givaro6logtwoERKNS_7IntegerE
libgivaro.so.9:_ZN6Givaro6powmodERKNS_7IntegerES2_S2_
libgivaro.so.9:_ZN6Givaro6powmodERKNS_7IntegerElS2_
libgivaro.so.9:_ZN6Givaro6powmodERKNS_7IntegerEmS2_
libgivaro.so.9:_ZN6Givaro6powmodERNS_7IntegerERKS0_S3_S3_
libgivaro.so.9:_ZN6Givaro6powmodERNS_7IntegerERKS0_lS3_
libgivaro.so.9:_ZN6Givaro6powmodERNS_7IntegerERKS0_mS3_
libgivaro.so.9:_ZN6Givaro7IndeteraSERKS0_
libgivaro.so.9:_ZN6Givaro7Integer3addERS0_RKS0_S3_
libgivaro.so.9:_ZN6Givaro7Integer3addERS0_RKS0_l
libgivaro.so.9:_ZN6Givaro7Integer3addERS0_RKS0_m
libgivaro.so.9:_ZN6Givaro7Integer3divERS0_RKS0_S3_
libgivaro.so.9:_ZN6Givaro7Integer3divERS0_RKS0_i
libgivaro.so.9:_ZN6Givaro7Integer3divERS0_RKS0_l
libgivaro.so.9:_ZN6Givaro7Integer3divERS0_RKS0_m
libgivaro.so.9:_ZN6Givaro7Integer3modERS0_RKS0_S3_
libgivaro.so.9:_ZN6Givaro7Integer3modERS0_RKS0_l
libgivaro.so.9:_ZN6Givaro7Integer3modERS0_RKS0_m
libgivaro.so.9:_ZN6Givaro7Integer3mulERS0_RKS0_S3_
libgivaro.so.9:_ZN6Givaro7Integer3mulERS0_RKS0_l
libgivaro.so.9:_ZN6Givaro7Integer3mulERS0_RKS0_m
libgivaro.so.9:_ZN6Givaro7Integer3negERS0_RKS0_
libgivaro.so.9:_ZN6Givaro7Integer3oneE
libgivaro.so.9:_ZN6Givaro7Integer3subERS0_RKS0_S3_
libgivaro.so.9:_ZN6Givaro7Integer3subERS0_RKS0_l
libgivaro.so.9:_ZN6Givaro7Integer3subERS0_RKS0_m
libgivaro.so.9:_ZN6Givaro7Integer4axmyERS0_RKS0_S3_S3_
libgivaro.so.9:_ZN6Givaro7Integer4axmyERS0_RKS0_mS3_
libgivaro.so.9:_ZN6Givaro7Integer4axpyERS0_RKS0_S3_S3_
libgivaro.so.9:_ZN6Givaro7Integer4axpyERS0_RKS0_mS3_
libgivaro.so.9:_ZN6Givaro7Integer4ceilERKS0_S2_
libgivaro.so.9:_ZN6Givaro7Integer4ceilERS0_RKS0_S3_
libgivaro.so.9:_ZN6Givaro7Integer4copyERKS0_
libgivaro.so.9:_ZN6Givaro7Integer4cremERKS0_RKm
libgivaro.so.9:_ZN6Givaro7Integer4cremERS0_RKS0_RKm
libgivaro.so.9:_ZN6Givaro7Integer4cremERS0_RKS0_S3_
libgivaro.so.9:_ZN6Givaro7Integer4fremERKS0_RKm
libgivaro.so.9:_ZN6Givaro7Integer4fremERS0_RKS0_RKm
libgivaro.so.9:_ZN6Givaro7Integer4fremERS0_RKS0_S3_
libgivaro.so.9:_ZN6Givaro7Integer4mOneE
libgivaro.so.9:_ZN6Givaro7Integer4tremERKS0_RKm
libgivaro.so.9:_ZN6Givaro7Integer4tremERS0_RKS0_RKm
libgivaro.so.9:_ZN6Givaro7Integer4tremERS0_RKS0_S3_
libgivaro.so.9:_ZN6Givaro7Integer4zeroE
libgivaro.so.9:_ZN6Givaro7Integer5addinERS0_RKS0_
libgivaro.so.9:_ZN6Givaro7Integer5addinERS0_l
libgivaro.so.9:_ZN6Givaro7Integer5addinERS0_m
libgivaro.so.9:_ZN6Givaro7Integer5divinERS0_RKS0_
libgivaro.so.9:_ZN6Givaro7Integer5divinERS0_l
libgivaro.so.9:_ZN6Givaro7Integer5divinERS0_m
libgivaro.so.9:_ZN6Givaro7Integer5floorERKS0_S2_
libgivaro.so.9:_ZN6Givaro7Integer5floorERS0_RKS0_S3_
libgivaro.so.9:_ZN6Givaro7Integer5maxpyERS0_RKS0_S3_S3_
libgivaro.so.9:_ZN6Givaro7Integer5maxpyERS0_RKS0_mS3_
libgivaro.so.9:_ZN6Givaro7Integer5modinERS0_RKS0_
libgivaro.so.9:_ZN6Givaro7Integer5modinERS0_l
libgivaro.so.9:_ZN6Givaro7Integer5modinERS0_m
libgivaro.so.9:_ZN6Givaro7Integer5mulinERS0_RKS0_
libgivaro.so.9:_ZN6Givaro7Integer5mulinERS0_l
libgivaro.so.9:_ZN6Givaro7Integer5mulinERS0_m
libgivaro.so.9:_ZN6Givaro7Integer5neginERS0_
libgivaro.so.9:_ZN6Givaro7Integer5subinERS0_RKS0_
libgivaro.so.9:_ZN6Givaro7Integer5subinERS0_l
libgivaro.so.9:_ZN6Givaro7Integer5subinERS0_m
libgivaro.so.9:_ZN6Givaro7Integer5truncERKS0_S2_
libgivaro.so.9:_ZN6Givaro7Integer5truncERS0_RKS0_S3_
libgivaro.so.9:_ZN6Givaro7Integer6axmyinERS0_RKS0_S3_
libgivaro.so.9:_ZN6Givaro7Integer6axmyinERS0_RKS0_m
libgivaro.so.9:_ZN6Givaro7Integer6axpyinERS0_RKS0_S3_
libgivaro.so.9:_ZN6Givaro7Integer6axpyinERS0_RKS0_m
libgivaro.so.9:_ZN6Givaro7Integer6divmodERS0_RlRKS0_l
libgivaro.so.9:_ZN6Givaro7Integer6divmodERS0_RmRKS0_m
libgivaro.so.9:_ZN6Givaro7Integer6divmodERS0_S1_RKS0_S3_
libgivaro.so.9:_ZN6Givaro7Integer6logcpyERKS0_
libgivaro.so.9:_ZN6Givaro7Integer7maxpyinERS0_RKS0_S3_
libgivaro.so.9:_ZN6Givaro7Integer7maxpyinERS0_RKS0_m
libgivaro.so.9:_ZN6Givaro7Integer8divexactERKS0_RKl
libgivaro.so.9:_ZN6Givaro7Integer8divexactERKS0_RKm
libgivaro.so.9:_ZN6Givaro7Integer8divexactERKS0_S2_
libgivaro.so.9:_ZN6Givaro7Integer8divexactERS0_RKS0_RKl
libgivaro.so.9:_ZN6Givaro7Integer8divexactERS0_RKS0_RKm
libgivaro.so.9:_ZN6Givaro7Integer8divexactERS0_RKS0_S3_
libgivaro.so.9:_ZN6Givaro7IntegerC1EPKc
libgivaro.so.9:_ZN6Givaro7IntegerC1ERKS0_
libgivaro.so.9:_ZN6Givaro7IntegerC1ERKSt6vectorImSaImEE
libgivaro.so.9:_ZN6Givaro7IntegerC1Ed
libgivaro.so.9:_ZN6Givaro7IntegerC1Eh
libgivaro.so.9:_ZN6Givaro7IntegerC1Ei
libgivaro.so.9:_ZN6Givaro7IntegerC1Ej
libgivaro.so.9:_ZN6Givaro7IntegerC1El
libgivaro.so.9:_ZN6Givaro7IntegerC1Em
libgivaro.so.9:_ZN6Givaro7IntegerC2EPKc
libgivaro.so.9:_ZN6Givaro7IntegerC2ERKS0_
libgivaro.so.9:_ZN6Givaro7IntegerC2ERKSt6vectorImSaImEE
libgivaro.so.9:_ZN6Givaro7IntegerC2Ed
libgivaro.so.9:_ZN6Givaro7IntegerC2Eh
libgivaro.so.9:_ZN6Givaro7IntegerC2Ei
libgivaro.so.9:_ZN6Givaro7IntegerC2Ej
libgivaro.so.9:_ZN6Givaro7IntegerC2El
libgivaro.so.9:_ZN6Givaro7IntegerC2Em
libgivaro.so.9:_ZN6Givaro7IntegerD1Ev
libgivaro.so.9:_ZN6Givaro7IntegerD2Ev
libgivaro.so.9:_ZN6Givaro7IntegeraNERKS0_
libgivaro.so.9:_ZN6Givaro7IntegeraNERKj
libgivaro.so.9:_ZN6Givaro7IntegeraNERKm
libgivaro.so.9:_ZN6Givaro7IntegeraSERKS0_
libgivaro.so.9:_ZN6Givaro7IntegerdVERKS0_
libgivaro.so.9:_ZN6Givaro7IntegerdVEl
libgivaro.so.9:_ZN6Givaro7IntegerdVEm
libgivaro.so.9:_ZN6Givaro7IntegereOERKS0_
libgivaro.so.9:_ZN6Givaro7IntegereOERKj
libgivaro.so.9:_ZN6Givaro7IntegereOERKm
libgivaro.so.9:_ZN6Givaro7IntegerlSEi
libgivaro.so.9:_ZN6Givaro7IntegerlSEj
libgivaro.so.9:_ZN6Givaro7IntegerlSEl
libgivaro.so.9:_ZN6Givaro7IntegerlSEm
libgivaro.so.9:_ZN6Givaro7IntegermIERKS0_
libgivaro.so.9:_ZN6Givaro7IntegermIEl
libgivaro.so.9:_ZN6Givaro7IntegermIEm
libgivaro.so.9:_ZN6Givaro7IntegermLERKS0_
libgivaro.so.9:_ZN6Givaro7IntegermLEl
libgivaro.so.9:_ZN6Givaro7IntegermLEm
libgivaro.so.9:_ZN6Givaro7IntegeroRERKS0_
libgivaro.so.9:_ZN6Givaro7IntegeroRERKj
libgivaro.so.9:_ZN6Givaro7IntegeroRERKm
libgivaro.so.9:_ZN6Givaro7IntegerpLERKS0_
libgivaro.so.9:_ZN6Givaro7IntegerpLEl
libgivaro.so.9:_ZN6Givaro7IntegerpLEm
libgivaro.so.9:_ZN6Givaro7IntegerrMERKS0_
libgivaro.so.9:_ZN6Givaro7IntegerrMEl
libgivaro.so.9:_ZN6Givaro7IntegerrMEm
libgivaro.so.9:_ZN6Givaro7IntegerrSEi
libgivaro.so.9:_ZN6Givaro7IntegerrSEj
libgivaro.so.9:_ZN6Givaro7IntegerrSEl
libgivaro.so.9:_ZN6Givaro7IntegerrSEm
libgivaro.so.9:_ZN6Givaro7Neutral3oneE
libgivaro.so.9:_ZN6Givaro7Neutral4zeroE
libgivaro.so.9:_ZN6Givaro7compareERKNS_7IntegerES2_
libgivaro.so.9:_ZN6Givaro7compareERKNS_8RationalES2_
libgivaro.so.9:_ZN6Givaro7nonZeroERKNS_7IntegerE
libgivaro.so.9:_ZN6Givaro7sqrtremERKNS_7IntegerERS0_
libgivaro.so.9:_ZN6Givaro7sqrtremERNS_7IntegerERKS0_S1_
libgivaro.so.9:_ZN6Givaro8AdicSize8n_max_53E
libgivaro.so.9:_ZN6Givaro8AdicSize8n_max_64E
libgivaro.so.9:_ZN6Givaro8AdicSize8qadic_53E
libgivaro.so.9:_ZN6Givaro8AdicSize8qadic_64E
libgivaro.so.9:_ZN6Givaro8GivError11throw_errorERKS0_
libgivaro.so.9:_ZN6Givaro8GivErrorD0Ev
libgivaro.so.9:_ZN6Givaro8GivErrorD1Ev
libgivaro.so.9:_ZN6Givaro8GivErrorD2Ev
libgivaro.so.9:_ZN6Givaro8Primes165_sizeE
libgivaro.so.9:_ZN6Givaro8Primes167_primesE
libgivaro.so.9:_ZN6Givaro8Rational11SetNoReduceEv
libgivaro.so.9:_ZN6Givaro8Rational22RationalReconstructionERNS_7IntegerES2_RKS1_S4_
libgivaro.so.9:_ZN6Givaro8Rational22RationalReconstructionERNS_7IntegerES2_RKS1_S4_S4_S4_
libgivaro.so.9:_ZN6Givaro8Rational22RationalReconstructionERNS_7IntegerES2_RKS1_S4_S4_bb
libgivaro.so.9:_ZN6Givaro8Rational3EndEv
libgivaro.so.9:_ZN6Givaro8Rational3oneE
libgivaro.so.9:_ZN6Givaro8Rational4InitEPiPPPc
libgivaro.so.9:_ZN6Givaro8Rational4copyERKS0_
libgivaro.so.9:_ZN6Givaro8Rational4mOneE
libgivaro.so.9:_ZN6Givaro8Rational4zeroE
libgivaro.so.9:_ZN6Givaro8Rational5flagsE
libgivaro.so.9:_ZN6Givaro8Rational6logcpyERKS0_
libgivaro.so.9:_ZN6Givaro8Rational6reduceEv
libgivaro.so.9:_ZN6Givaro8Rational8ratreconERKNS_7IntegerES3_S3_bb
libgivaro.so.9:_ZN6Givaro8Rational8ratreconERNS_7IntegerES2_RKS1_S4_S4_bb
libgivaro.so.9:_ZN6Givaro8Rational9SetReduceEv
libgivaro.so.9:_ZN6Givaro8RationalC1ENS_7NeutralE
libgivaro.so.9:_ZN6Givaro8RationalC1ENS_9givNoInitE
libgivaro.so.9:_ZN6Givaro8RationalC1EPKc
libgivaro.so.9:_ZN6Givaro8RationalC1ERKNS_7IntegerE
libgivaro.so.9:_ZN6Givaro8RationalC1ERKNS_7IntegerES3_S3_b
libgivaro.so.9:_ZN6Givaro8RationalC1ERKNS_7IntegerES3_i
libgivaro.so.9:_ZN6Givaro8RationalC1ERKS0_
libgivaro.so.9:_ZN6Givaro8RationalC1Ed
libgivaro.so.9:_ZN6Givaro8RationalC1Ei
libgivaro.so.9:_ZN6Givaro8RationalC1Eii
libgivaro.so.9:_ZN6Givaro8RationalC1Ej
libgivaro.so.9:_ZN6Givaro8RationalC1Ejj
libgivaro.so.9:_ZN6Givaro8RationalC1El
libgivaro.so.9:_ZN6Givaro8RationalC1Ell
libgivaro.so.9:_ZN6Givaro8RationalC1Em
libgivaro.so.9:_ZN6Givaro8RationalC1Emm
libgivaro.so.9:_ZN6Givaro8RationalC2ENS_7NeutralE
libgivaro.so.9:_ZN6Givaro8RationalC2ENS_9givNoInitE
libgivaro.so.9:_ZN6Givaro8RationalC2EPKc
libgivaro.so.9:_ZN6Givaro8RationalC2ERKNS_7IntegerE
libgivaro.so.9:_ZN6Givaro8RationalC2ERKNS_7IntegerES3_S3_b
libgivaro.so.9:_ZN6Givaro8RationalC2ERKNS_7IntegerES3_i
libgivaro.so.9:_ZN6Givaro8RationalC2ERKS0_
libgivaro.so.9:_ZN6Givaro8RationalC2Ed
libgivaro.so.9:_ZN6Givaro8RationalC2Ei
libgivaro.so.9:_ZN6Givaro8RationalC2Eii
libgivaro.so.9:_ZN6Givaro8RationalC2Ej
libgivaro.so.9:_ZN6Givaro8RationalC2Ejj
libgivaro.so.9:_ZN6Givaro8RationalC2El
libgivaro.so.9:_ZN6Givaro8RationalC2Ell
libgivaro.so.9:_ZN6Givaro8RationalC2Em
libgivaro.so.9:_ZN6Givaro8RationalC2Emm
libgivaro.so.9:_ZN6Givaro8RationalaSERKS0_
libgivaro.so.9:_ZN6Givaro8RationaldVERKS0_
libgivaro.so.9:_ZN6Givaro8RationalmIERKS0_
libgivaro.so.9:_ZN6Givaro8RationalmLERKS0_
libgivaro.so.9:_ZN6Givaro8RationalpLERKS0_
libgivaro.so.9:_ZN6Givaro8SysTimer4stopEv
libgivaro.so.9:_ZN6Givaro8SysTimer5startEv
libgivaro.so.9:_ZN6Givaro8legendreERKNS_7IntegerES2_
libgivaro.so.9:_ZN6Givaro9BaseTimer4seedEv
libgivaro.so.9:_ZN6Givaro9BaseTimeraSERKS0_
libgivaro.so.9:_ZN6Givaro9BaseTimerngEv
libgivaro.so.9:_ZN6Givaro9GivMMInfoC1Ev
libgivaro.so.9:_ZN6Givaro9GivMMInfoC2Ev
libgivaro.so.9:_ZN6Givaro9GivMMInfoD1Ev
libgivaro.so.9:_ZN6Givaro9GivMMInfoD2Ev
libgivaro.so.9:_ZN6Givaro9GivModule13SortGivModuleEv
libgivaro.so.9:_ZN6Givaro9GivModule6EndAppEv
libgivaro.so.9:_ZN6Givaro9GivModule7InitAppEPiPPPc
libgivaro.so.9:_ZN6Givaro9GivModuleC1EPFvPiPPPcEPFvvERKNS_9InitAfterEPKc
libgivaro.so.9:_ZN6Givaro9GivModuleC1EPFvPiPPPcEPFvvEiPKc
libgivaro.so.9:_ZN6Givaro9GivModuleC2EPFvPiPPPcEPFvvERKNS_9InitAfterEPKc
libgivaro.so.9:_ZN6Givaro9GivModuleC2EPFvPiPPPcEPFvvEiPKc
libgivaro.so.9:_ZN6Givaro9GivModuleD1Ev
libgivaro.so.9:_ZN6Givaro9GivModuleD2Ev
libgivaro.so.9:_ZN6Givaro9InitAfter4LastE
libgivaro.so.9:_ZN6Givaro9InitAfter5FirstE
libgivaro.so.9:_ZN6Givaro9InitAfter7DefaultE
libgivaro.so.9:_ZN6Givaro9InitAfterC1ERKNS_9GivModuleE
libgivaro.so.9:_ZN6Givaro9InitAfterC1Ei
libgivaro.so.9:_ZN6Givaro9InitAfterC2ERKNS_9GivModuleE
libgivaro.so.9:_ZN6Givaro9InitAfterC2Ei
libgivaro.so.9:_ZN6Givaro9Protected11importWordsERNS_7IntegerEmiiimPKv
libgivaro.so.9:_ZN6Givaro9Protected12probab_primeERKNS_7IntegerEi
libgivaro.so.9:_ZN6Givaro9Protected9nextprimeERNS_7IntegerERKS1_
libgivaro.so.9:_ZN6Givaro9Protected9prevprimeERNS_7IntegerERKS1_
libgivaro.so.9:_ZN6Givaro9RealTimer4stopEv
libgivaro.so.9:_ZN6Givaro9RealTimer5startEv
libgivaro.so.9:_ZN6Givaro9UserTimer4stopEv
libgivaro.so.9:_ZN6Givaro9UserTimer5startEv
libgivaro.so.9:_ZN6Givaro9absOutputERSoRKNS_7IntegerE
libgivaro.so.9:_ZN6Givaro9kroneckerERKNS_7IntegerES2_
libgivaro.so.9:_ZN6GivarodvEiRKNS_7IntegerE
libgivaro.so.9:_ZN6GivarodvEjRKNS_7IntegerE
libgivaro.so.9:_ZN6GivarodvElRKNS_7IntegerE
libgivaro.so.9:_ZN6GivarodvEmRKNS_7IntegerE
libgivaro.so.9:_ZN6GivaroeqEdRKNS_7IntegerE
libgivaro.so.9:_ZN6GivaroeqEfRKNS_7IntegerE
libgivaro.so.9:_ZN6GivaroeqEiRKNS_7IntegerE
libgivaro.so.9:_ZN6GivaroeqEjRKNS_7IntegerE
libgivaro.so.9:_ZN6GivaroeqElRKNS_7IntegerE
libgivaro.so.9:_ZN6GivaroeqEmRKNS_7IntegerE
libgivaro.so.9:_ZN6GivarogeEdRKNS_7IntegerE
libgivaro.so.9:_ZN6GivarogeEfRKNS_7IntegerE
libgivaro.so.9:_ZN6GivarogeEiRKNS_7IntegerE
libgivaro.so.9:_ZN6GivarogeEjRKNS_7IntegerE
libgivaro.so.9:_ZN6GivarogeElRKNS_7IntegerE
libgivaro.so.9:_ZN6GivarogeEmRKNS_7IntegerE
libgivaro.so.9:_ZN6GivarogtEdRKNS_7IntegerE
libgivaro.so.9:_ZN6GivarogtEfRKNS_7IntegerE
libgivaro.so.9:_ZN6GivarogtEiRKNS_7IntegerE
libgivaro.so.9:_ZN6GivarogtEjRKNS_7IntegerE
libgivaro.so.9:_ZN6GivarogtElRKNS_7IntegerE
libgivaro.so.9:_ZN6GivarogtEmRKNS_7IntegerE
libgivaro.so.9:_ZN6GivaroleEdRKNS_7IntegerE
libgivaro.so.9:_ZN6GivaroleEfRKNS_7IntegerE
libgivaro.so.9:_ZN6GivaroleEiRKNS_7IntegerE
libgivaro.so.9:_ZN6GivaroleEjRKNS_7IntegerE
libgivaro.so.9:_ZN6GivaroleElRKNS_7IntegerE
libgivaro.so.9:_ZN6GivaroleEmRKNS_7IntegerE
libgivaro.so.9:_ZN6GivarolsERSoRKNS_7IndeterE
libgivaro.so.9:_ZN6GivarolsERSoRKNS_7IntegerE
libgivaro.so.9:_ZN6GivarolsERSoRKNS_8GivErrorE
libgivaro.so.9:_ZN6GivaroltEdRKNS_7IntegerE
libgivaro.so.9:_ZN6GivaroltEfRKNS_7IntegerE
libgivaro.so.9:_ZN6GivaroltEiRKNS_7IntegerE
libgivaro.so.9:_ZN6GivaroltEjRKNS_7IntegerE
libgivaro.so.9:_ZN6GivaroltElRKNS_7IntegerE
libgivaro.so.9:_ZN6GivaroltEmRKNS_7IntegerE
libgivaro.so.9:_ZN6GivaromiEiRKNS_7IntegerE
libgivaro.so.9:_ZN6GivaromiEjRKNS_7IntegerE
libgivaro.so.9:_ZN6GivaromiElRKNS_7IntegerE
libgivaro.so.9:_ZN6GivaromiEmRKNS_7IntegerE
libgivaro.so.9:_ZN6GivaromlEiRKNS_7IntegerE
libgivaro.so.9:_ZN6GivaromlEjRKNS_7IntegerE
libgivaro.so.9:_ZN6GivaromlElRKNS_7IntegerE
libgivaro.so.9:_ZN6GivaromlEmRKNS_7IntegerE
libgivaro.so.9:_ZN6GivaroneEdRKNS_7IntegerE
libgivaro.so.9:_ZN6GivaroneEfRKNS_7IntegerE
libgivaro.so.9:_ZN6GivaroneEiRKNS_7IntegerE
libgivaro.so.9:_ZN6GivaroneEjRKNS_7IntegerE
libgivaro.so.9:_ZN6GivaroneElRKNS_7IntegerE
libgivaro.so.9:_ZN6GivaroneEmRKNS_7IntegerE
libgivaro.so.9:_ZN6GivaroplEiRKNS_7IntegerE
libgivaro.so.9:_ZN6GivaroplEjRKNS_7IntegerE
libgivaro.so.9:_ZN6GivaroplElRKNS_7IntegerE
libgivaro.so.9:_ZN6GivaroplEmRKNS_7IntegerE
libgivaro.so.9:_ZN6GivarormEiRKNS_7IntegerE
libgivaro.so.9:_ZN6GivarormEjRKNS_7IntegerE
libgivaro.so.9:_ZN6GivarormElRKNS_7IntegerE
libgivaro.so.9:_ZN6GivarormEmRKNS_7IntegerE
libgivaro.so.9:_ZN6GivarorsERSiRNS_7IndeterE
libgivaro.so.9:_ZN6GivarorsERSiRNS_7IntegerE
libgivaro.so.9:_ZN6GivarorsERSiRNS_8RationalE
libgivaro.so.9:_ZNK6Givaro11IntPrimeDom11nextprimeinERNS_7IntegerEi
libgivaro.so.9:_ZNK6Givaro11IntPrimeDom11prevprimeinERNS_7IntegerEi
libgivaro.so.9:_ZNK6Givaro11IntPrimeDom12isprimepowerERNS_7IntegerERKS1_
libgivaro.so.9:_ZNK6Givaro11IntPrimeDom14isprime_TabuleEi
libgivaro.so.9:_ZNK6Givaro11IntPrimeDom15isprime_Tabule2Ei
libgivaro.so.9:_ZNK6Givaro11IntPrimeDom9nextprimeERNS_7IntegerERKS1_i
libgivaro.so.9:_ZNK6Givaro11IntPrimeDom9prevprimeERNS_7IntegerERKS1_i
libgivaro.so.9:_ZNK6Givaro4Bits10indexofoneERNS_6Array0ImEE
libgivaro.so.9:_ZNK6Givaro4Bits3getEi
libgivaro.so.9:_ZNK6Givaro4Bits5printERSo
libgivaro.so.9:_ZNK6Givaro4Bits6lengthEv
libgivaro.so.9:_ZNK6Givaro4Bits6numoneEv
libgivaro.so.9:_ZNK6Givaro4BitsanERKS0_
libgivaro.so.9:_ZNK6Givaro4BitscoEv
libgivaro.so.9:_ZNK6Givaro4BitseoERKS0_
libgivaro.so.9:_ZNK6Givaro4BitsixEi
libgivaro.so.9:_ZNK6Givaro4BitsixEm
libgivaro.so.9:_ZNK6Givaro4BitsorERKS0_
libgivaro.so.9:_ZNK6Givaro5Timer5printERSo
libgivaro.so.9:_ZNK6Givaro5TimerdvEd
libgivaro.so.9:_ZNK6Givaro5TimermiERKS0_
libgivaro.so.9:_ZNK6Givaro5TimerplERKS0_
libgivaro.so.9:_ZNK6Givaro5ZRingINS_7IntegerEE22RationalReconstructionERS1_S3_RKS1_S5_
libgivaro.so.9:_ZNK6Givaro5ZRingINS_7IntegerEE22RationalReconstructionERS1_S3_RKS1_S5_S5_S5_
libgivaro.so.9:_ZNK6Givaro5ZRingINS_7IntegerEE22RationalReconstructionERS1_S3_RKS1_S5_S5_bb
libgivaro.so.9:_ZNK6Givaro5ZRingINS_7IntegerEE8ratreconERS1_S3_RKS1_S5_S5_bb
libgivaro.so.9:_ZNK6Givaro7Indeter7compareERKS0_
libgivaro.so.9:_ZNK6Givaro7Integer12size_in_baseEi
libgivaro.so.9:_ZNK6Givaro7Integer4sizeEv
libgivaro.so.9:_ZNK6Givaro7Integer5printERSo
libgivaro.so.9:_ZNK6Givaro7Integer7bitsizeEv
libgivaro.so.9:_ZNK6Givaro7IntegeranERKS0_
libgivaro.so.9:_ZNK6Givaro7IntegeranERKj
libgivaro.so.9:_ZNK6Givaro7IntegeranERKm
libgivaro.so.9:_ZNK6Givaro7IntegercoEv
libgivaro.so.9:_ZNK6Givaro7IntegercvNSt7__cxx1112basic_stringIcSt11char_traitsIcESaIcEEEEv
libgivaro.so.9:_ZNK6Givaro7IntegercvSt6vectorImSaImEEEv
libgivaro.so.9:_ZNK6Givaro7IntegercvdEv
libgivaro.so.9:_ZNK6Givaro7IntegercvfEv
libgivaro.so.9:_ZNK6Givaro7IntegercviEv
libgivaro.so.9:_ZNK6Givaro7IntegercvjEv
libgivaro.so.9:_ZNK6Givaro7IntegercvlEv
libgivaro.so.9:_ZNK6Givaro7IntegercvmEv
libgivaro.so.9:_ZNK6Givaro7IntegerdvERKS0_
libgivaro.so.9:_ZNK6Givaro7IntegerdvEl
libgivaro.so.9:_ZNK6Givaro7IntegerdvEm
libgivaro.so.9:_ZNK6Givaro7IntegereoERKS0_
libgivaro.so.9:_ZNK6Givaro7IntegereoERKj
libgivaro.so.9:_ZNK6Givaro7IntegereoERKm
libgivaro.so.9:_ZNK6Givaro7IntegereqERKS0_
libgivaro.so.9:_ZNK6Givaro7IntegereqEd
libgivaro.so.9:_ZNK6Givaro7IntegereqEf
libgivaro.so.9:_ZNK6Givaro7IntegereqEi
libgivaro.so.9:_ZNK6Givaro7IntegereqEj
libgivaro.so.9:_ZNK6Givaro7IntegereqEl
libgivaro.so.9:_ZNK6Givaro7IntegereqEm
libgivaro.so.9:_ZNK6Givaro7IntegergeERKS0_
libgivaro.so.9:_ZNK6Givaro7IntegergeEd
libgivaro.so.9:_ZNK6Givaro7IntegergeEf
libgivaro.so.9:_ZNK6Givaro7IntegergeEi
libgivaro.so.9:_ZNK6Givaro7IntegergeEj
libgivaro.so.9:_ZNK6Givaro7IntegergeEl
libgivaro.so.9:_ZNK6Givaro7IntegergeEm
libgivaro.so.9:_ZNK6Givaro7IntegergtERKS0_
libgivaro.so.9:_ZNK6Givaro7IntegergtEd
libgivaro.so.9:_ZNK6Givaro7IntegergtEf
libgivaro.so.9:_ZNK6Givaro7IntegergtEi
libgivaro.so.9:_ZNK6Givaro7IntegergtEj
libgivaro.so.9:_ZNK6Givaro7IntegergtEl
libgivaro.so.9:_ZNK6Givaro7IntegergtEm
libgivaro.so.9:_ZNK6Givaro7IntegerixEm
libgivaro.so.9:_ZNK6Givaro7IntegerleERKS0_
libgivaro.so.9:_ZNK6Givaro7IntegerleEd
libgivaro.so.9:_ZNK6Givaro7IntegerleEf
libgivaro.so.9:_ZNK6Givaro7IntegerleEi
libgivaro.so.9:_ZNK6Givaro7IntegerleEj
libgivaro.so.9:_ZNK6Givaro7IntegerleEl
libgivaro.so.9:_ZNK6Givaro7IntegerleEm
libgivaro.so.9:_ZNK6Givaro7IntegerlsEi
libgivaro.so.9:_ZNK6Givaro7IntegerlsEj
libgivaro.so.9:_ZNK6Givaro7IntegerlsEl
libgivaro.so.9:_ZNK6Givaro7IntegerlsEm
libgivaro.so.9:_ZNK6Givaro7IntegerltERKS0_
libgivaro.so.9:_ZNK6Givaro7IntegerltEd
libgivaro.so.9:_ZNK6Givaro7IntegerltEf
libgivaro.so.9:_ZNK6Givaro7IntegerltEi
libgivaro.so.9:_ZNK6Givaro7IntegerltEj
libgivaro.so.9:_ZNK6Givaro7IntegerltEl
libgivaro.so.9:_ZNK6Givaro7IntegerltEm
libgivaro.so.9:_ZNK6Givaro7IntegermiERKS0_
libgivaro.so.9:_ZNK6Givaro7IntegermiEl
libgivaro.so.9:_ZNK6Givaro7IntegermiEm
libgivaro.so.9:_ZNK6Givaro7IntegermlERKS0_
libgivaro.so.9:_ZNK6Givaro7IntegermlEl
libgivaro.so.9:_ZNK6Givaro7IntegermlEm
libgivaro.so.9:_ZNK6Givaro7IntegerneERKS0_
libgivaro.so.9:_ZNK6Givaro7IntegerneEd
libgivaro.so.9:_ZNK6Givaro7IntegerneEf
libgivaro.so.9:_ZNK6Givaro7IntegerneEi
libgivaro.so.9:_ZNK6Givaro7IntegerneEj
libgivaro.so.9:_ZNK6Givaro7IntegerneEl
libgivaro.so.9:_ZNK6Givaro7IntegerneEm
libgivaro.so.9:_ZNK6Givaro7IntegerngEv
libgivaro.so.9:_ZNK6Givaro7IntegerorERKS0_
libgivaro.so.9:_ZNK6Givaro7IntegerorERKj
libgivaro.so.9:_ZNK6Givaro7IntegerorERKm
libgivaro.so.9:_ZNK6Givaro7IntegerplERKS0_
libgivaro.so.9:_ZNK6Givaro7IntegerplEl
libgivaro.so.9:_ZNK6Givaro7IntegerplEm
libgivaro.so.9:_ZNK6Givaro7IntegerrmERKS0_
libgivaro.so.9:_ZNK6Givaro7IntegerrmEd
libgivaro.so.9:_ZNK6Givaro7IntegerrmEl
libgivaro.so.9:_ZNK6Givaro7IntegerrmEm
libgivaro.so.9:_ZNK6Givaro7IntegerrsEi
libgivaro.so.9:_ZNK6Givaro7IntegerrsEj
libgivaro.so.9:_ZNK6Givaro7IntegerrsEl
libgivaro.so.9:_ZNK6Givaro7IntegerrsEm
libgivaro.so.9:_ZNK6Givaro8GivError5printERSo
libgivaro.so.9:_ZNK6Givaro8Rational5printERSo
libgivaro.so.9:_ZNK6Givaro8RationaldvERKS0_
libgivaro.so.9:_ZNK6Givaro8RationalmiERKS0_
libgivaro.so.9:_ZNK6Givaro8RationalmlERKS0_
libgivaro.so.9:_ZNK6Givaro8RationalngEv
libgivaro.so.9:_ZNK6Givaro8RationalplERKS0_
libgivaro.so.9:_ZNK6Givaro8RationalrmERKNS_7IntegerE
libgivaro.so.9:_ZNK6Givaro9BaseTimer5printERSo
libgivaro.so.9:_ZNK6Givaro9BaseTimerdvEd
libgivaro.so.9:_ZNK6Givaro9BaseTimermiERKS0_
libgivaro.so.9:_ZNK6Givaro9BaseTimerplERKS0_
libgivaro.so.9:_ZNK6Givaro9FermatDom5pepinERKNS_7IntegerE
libgivaro.so.9:_ZNK6Givaro9FermatDom5pepinEm
libgivaro.so.9:_ZNK6Givaro9FermatDom6fermatERNS_7IntegerEm
libgivaro.so.9:_ZNK6Givaro9GivMMInfo5printERSo
libgivaro.so.9:_ZNK6Givaro9InitAfterltERKS0_
