UNKNOWN:_ZTIN5boost6detail16thread_data_baseE
UNKNOWN:_ZTV8newforms
UNKNOWN:_ZTVN5boost6detail16thread_data_baseE
ld-linux-x86-64.so.2:__tls_get_addr
libboost_thread.so.1.83.0:_ZN5boost11this_thread18interruption_pointEv
libboost_thread.so.1.83.0:_ZN5boost11this_thread20disable_interruptionC1Ev
libboost_thread.so.1.83.0:_ZN5boost11this_thread20disable_interruptionD1Ev
libboost_thread.so.1.83.0:_ZN5boost6detail16thread_data_baseD2Ev
libboost_thread.so.1.83.0:_ZN5boost6detail23get_current_thread_dataEv
libboost_thread.so.1.83.0:_ZN5boost6thread13join_noexceptEv
libboost_thread.so.1.83.0:_ZN5boost6thread13native_handleEv
libboost_thread.so.1.83.0:_ZN5boost6thread20hardware_concurrencyEv
libboost_thread.so.1.83.0:_ZN5boost6thread21start_thread_noexceptEv
libboost_thread.so.1.83.0:_ZN5boost6thread6detachEv
libboost_thread.so.1.83.0:_ZNK5boost6thread8joinableEv
libc.so.6:__assert_fail
libc.so.6:__cxa_atexit
libc.so.6:__errno_location
libc.so.6:__fprintf_chk
libc.so.6:__isoc23_strtol
libc.so.6:__libc_start_main
libc.so.6:__snprintf_chk
libc.so.6:__stack_chk_fail
libc.so.6:__vsnprintf_chk
libc.so.6:aligned_alloc
libc.so.6:close
libc.so.6:epoll_create
libc.so.6:epoll_create1
libc.so.6:epoll_ctl
libc.so.6:epoll_wait
libc.so.6:eventfd
libc.so.6:exit
libc.so.6:fcntl
libc.so.6:fflush
libc.so.6:fputs
libc.so.6:free
libc.so.6:getenv
libc.so.6:gettimeofday
libc.so.6:malloc
libc.so.6:memcmp
libc.so.6:memcpy
libc.so.6:memmove
libc.so.6:memset
libc.so.6:pause
libc.so.6:pipe
libc.so.6:pthread_cond_broadcast
libc.so.6:pthread_cond_destroy
libc.so.6:pthread_cond_init
libc.so.6:pthread_cond_signal
libc.so.6:pthread_cond_wait
libc.so.6:pthread_condattr_destroy
libc.so.6:pthread_condattr_init
libc.so.6:pthread_condattr_setclock
libc.so.6:pthread_create
libc.so.6:pthread_detach
libc.so.6:pthread_join
libc.so.6:pthread_mutex_destroy
libc.so.6:pthread_mutex_init
libc.so.6:pthread_mutex_lock
libc.so.6:pthread_mutex_unlock
libc.so.6:pthread_self
libc.so.6:pthread_sigmask
libc.so.6:qsort
libc.so.6:realloc
libc.so.6:sigfillset
libc.so.6:stderr
libc.so.6:stdout
libc.so.6:strchr
libc.so.6:strcmp
libc.so.6:strerror_r
libc.so.6:strlen
libc.so.6:strncpy
libc.so.6:timerfd_create
libc.so.6:timerfd_settime
libc.so.6:write
libgcc_s.so.1:_Unwind_Resume
libm.so.6:ceil
libm.so.6:exp
libm.so.6:floor
libm.so.6:log
libm.so.6:pow
libm.so.6:sqrt
libntl.so.44:_Z10_ntl_g2logP17_ntl_gbigint_body
libntl.so.44:_Z10_ntl_gcopyP17_ntl_gbigint_bodyPS0_
libntl.so.44:_Z10_ntl_gdoubP17_ntl_gbigint_body
libntl.so.44:_Z10_ntl_gfreeP17_ntl_gbigint_body
libntl.so.44:_Z10_ntl_gsaddP17_ntl_gbigint_bodylPS0_
libntl.so.44:_Z10_ntl_gsdivP17_ntl_gbigint_bodylPS0_
libntl.so.44:_Z10_ntl_gsmodP17_ntl_gbigint_bodyl
libntl.so.44:_Z10_ntl_gsmulP17_ntl_gbigint_bodylPS0_
libntl.so.44:_Z10_ntl_gsqrtP17_ntl_gbigint_bodyPS0_
libntl.so.44:_Z10_ntl_gssubP17_ntl_gbigint_bodylPS0_
libntl.so.44:_Z10_ntl_gswapPP17_ntl_gbigint_bodyS1_
libntl.so.44:_Z11_ntl_gintozlPP17_ntl_gbigint_body
libntl.so.44:_Z11_ntl_gisoneP17_ntl_gbigint_body
libntl.so.44:_Z12_ntl_GetTimev
libntl.so.44:_Z12_ntl_gaddmodP17_ntl_gbigint_bodyS0_S0_PS0_
libntl.so.44:_Z12_ntl_glshiftP17_ntl_gbigint_bodylPS0_
libntl.so.44:_Z12_ntl_gmulmodP17_ntl_gbigint_bodyS0_S0_PS0_
libntl.so.44:_Z12_ntl_gnegatePP17_ntl_gbigint_body
libntl.so.44:_Z12_ntl_grshiftP17_ntl_gbigint_bodylPS0_
libntl.so.44:_Z12_ntl_gsetbitPP17_ntl_gbigint_bodyl
libntl.so.44:_Z12_ntl_gsubmodP17_ntl_gbigint_bodyS0_S0_PS0_
libntl.so.44:_Z13_ntl_gcompareP17_ntl_gbigint_bodyS0_
libntl.so.44:_Z13_ntl_gexteuclP17_ntl_gbigint_bodyPS0_S0_S1_S1_
libntl.so.44:_Z14_ntl_gscompareP17_ntl_gbigint_bodyl
libntl.so.44:_Z8_ntl_gsqP17_ntl_gbigint_bodyPS0_
libntl.so.44:_Z9_ntl_gabsPP17_ntl_gbigint_body
libntl.so.44:_Z9_ntl_gaddP17_ntl_gbigint_bodyS0_PS0_
libntl.so.44:_Z9_ntl_gdivP17_ntl_gbigint_bodyS0_PS0_S1_
libntl.so.44:_Z9_ntl_gexpP17_ntl_gbigint_bodylPS0_
libntl.so.44:_Z9_ntl_ggcdP17_ntl_gbigint_bodyS0_PS0_
libntl.so.44:_Z9_ntl_gmodP17_ntl_gbigint_bodyS0_PS0_
libntl.so.44:_Z9_ntl_gmulP17_ntl_gbigint_bodyS0_PS0_
libntl.so.44:_Z9_ntl_goddP17_ntl_gbigint_body
libntl.so.44:_Z9_ntl_gsubP17_ntl_gbigint_bodyS0_PS0_
libntl.so.44:_ZN3NTL10SqrRootModERNS_2ZZERKS0_S3_
libntl.so.44:_ZN3NTL11ZZ_pContext4saveEv
libntl.so.44:_ZN3NTL11determinantERKNS_3MatINS_2RREEE
libntl.so.44:_ZN3NTL11zz_pContextC1Ell
libntl.so.44:_ZN3NTL12BlockDestroyEPNS_4ZZ_pEl
libntl.so.44:_ZN3NTL12ZZ_pXModulusC1ERKNS_5ZZ_pXE
libntl.so.44:_ZN3NTL13TerminalErrorEPKc
libntl.so.44:_ZN3NTL16SquareFreeDecompERNS_3VecINS_4PairINS_3ZZXElEEEERKS2_
libntl.so.44:_ZN3NTL19relaxed_determinantERNS_4zz_pERKNS_3MatIS0_EEb
libntl.so.44:_ZN3NTL21BlockConstructFromVecEPNS_4ZZ_pElPKS0_
libntl.so.44:_ZN3NTL2RR12SetPrecisionEl
libntl.so.44:_ZN3NTL2RR18SetOutputPrecisionEl
libntl.so.44:_ZN3NTL2RR4precE
libntl.so.44:_ZN3NTL2ZZ4zeroEv
libntl.so.44:_ZN3NTL3GCDERNS_5ZZ_pXERKS0_S3_
libntl.so.44:_ZN3NTL3absERNS_2RRERKS0_
libntl.so.44:_ZN3NTL3addERNS_2RRERKS0_S3_
libntl.so.44:_ZN3NTL3addERNS_2RRERKS0_d
libntl.so.44:_ZN3NTL3addERNS_3ZZXERKS0_RKNS_2ZZE
libntl.so.44:_ZN3NTL3addERNS_3ZZXERKS0_S3_
libntl.so.44:_ZN3NTL3addERNS_5ZZ_pXERKS0_RKNS_4ZZ_pE
libntl.so.44:_ZN3NTL3addERNS_5ZZ_pXERKS0_S3_
libntl.so.44:_ZN3NTL3cosERNS_2RRERKS0_
libntl.so.44:_ZN3NTL3divERNS_2RRERKS0_S3_
libntl.so.44:_ZN3NTL3divERNS_2RRERKS0_d
libntl.so.44:_ZN3NTL3divERNS_2RREdRKS0_
libntl.so.44:_ZN3NTL3divERNS_4ZZ_pERKS0_S3_
libntl.so.44:_ZN3NTL3divERNS_5ZZ_pXERKS0_S3_
libntl.so.44:_ZN3NTL3expERNS_2RRERKS0_
libntl.so.44:_ZN3NTL3invERNS_2RRERKS0_
libntl.so.44:_ZN3NTL3logERNS_2RRERKS0_
libntl.so.44:_ZN3NTL3mulERNS_2RRERKS0_S3_
libntl.so.44:_ZN3NTL3mulERNS_2RRERKS0_d
libntl.so.44:_ZN3NTL3mulERNS_3VecINS_4zz_pEEERKS2_S1_
libntl.so.44:_ZN3NTL3mulERNS_3ZZXERKS0_RKNS_2ZZE
libntl.so.44:_ZN3NTL3mulERNS_3ZZXERKS0_S3_
libntl.so.44:_ZN3NTL3mulERNS_4ZZ_pERKS0_l
libntl.so.44:_ZN3NTL3mulERNS_5ZZ_pXERKS0_RKNS_4ZZ_pE
libntl.so.44:_ZN3NTL3mulERNS_5ZZ_pXERKS0_S3_
libntl.so.44:_ZN3NTL3powERNS_2RRERKS0_S3_
libntl.so.44:_ZN3NTL3sinERNS_2RRERKS0_
libntl.so.44:_ZN3NTL3sqrERNS_2RRERKS0_
libntl.so.44:_ZN3NTL3subERNS_2RRERKS0_S3_
libntl.so.44:_ZN3NTL3subERNS_2RRERKS0_d
libntl.so.44:_ZN3NTL3subERNS_2RREdRKS0_
libntl.so.44:_ZN3NTL3subERNS_2ZZElRKS0_
libntl.so.44:_ZN3NTL3subERNS_3ZZXERKS0_S3_
libntl.so.44:_ZN3NTL3subERNS_5ZZ_pXERKNS_4ZZ_pERKS0_
libntl.so.44:_ZN3NTL3subERNS_5ZZ_pXERKS0_RKNS_4ZZ_pE
libntl.so.44:_ZN3NTL3subERNS_5ZZ_pXERKS0_S3_
libntl.so.44:_ZN3NTL4SetXERNS_3ZZXE
libntl.so.44:_ZN3NTL4SetXERNS_5ZZ_pXE
libntl.so.44:_ZN3NTL4ZZ_p4initERKNS_2ZZE
libntl.so.44:_ZN3NTL4ZZ_pC1ERKNS_15INIT_VAL_STRUCTERKNS_2ZZE
libntl.so.44:_ZN3NTL4ZZ_pC1ERKNS_15INIT_VAL_STRUCTEl
libntl.so.44:_ZN3NTL4ceilERNS_2RRERKS0_
libntl.so.44:_ZN3NTL4convERNS_2RRERKNS_2ZZE
libntl.so.44:_ZN3NTL4convERNS_2RREd
libntl.so.44:_ZN3NTL4convERNS_2RREl
libntl.so.44:_ZN3NTL4convERNS_2ZZERKNS_2RRE
libntl.so.44:_ZN3NTL4convERdRKNS_2RRE
libntl.so.44:_ZN3NTL4signERKNS_2RRE
libntl.so.44:_ZN3NTL5ZZ_pXaSERKNS_4ZZ_pE
libntl.so.44:_ZN3NTL5coeffERKNS_3ZZXEl
libntl.so.44:_ZN3NTL5coeffERKNS_5ZZ_pXEl
libntl.so.44:_ZN3NTL5floorERNS_2RRERKS0_
libntl.so.44:_ZN3NTL5gaussERNS_3MatINS_4zz_pEEE
libntl.so.44:_ZN3NTL5powerERNS_2RRERKS0_l
libntl.so.44:_ZN3NTL5roundERNS_2RRERKS0_
libntl.so.44:_ZN3NTL6InvModEll
libntl.so.44:_ZN3NTL6IsZeroERKNS_2RRE
libntl.so.44:_ZN3NTL6MakeRRERNS_2RRERKNS_2ZZEl
libntl.so.44:_ZN3NTL6divideERNS_5ZZ_pXERKS0_S3_
libntl.so.44:_ZN3NTL6factorERNS_2ZZERNS_3VecINS_4PairINS_3ZZXElEEEERKS4_ll
libntl.so.44:_ZN3NTL6negateERNS_2RRERKS0_
libntl.so.44:_ZN3NTL6power2ERNS_2RREl
libntl.so.44:_ZN3NTL6power2ERNS_2ZZEl
libntl.so.44:_ZN3NTL7CanZassERNS_3VecINS_4PairINS_5ZZ_pXElEEEERKS2_l
libntl.so.44:_ZN3NTL7SqrRootERNS_2RRERKS0_
libntl.so.44:_ZN3NTL7compareERKNS_2RRES2_
libntl.so.44:_ZN3NTL7compareERKNS_2RREd
libntl.so.44:_ZN3NTL7zz_pBak4saveEv
libntl.so.44:_ZN3NTL7zz_pBakD1Ev
libntl.so.44:_ZN3NTL8CeilToZZERNS_2ZZERKNS_2RRE
libntl.so.44:_ZN3NTL8CharPolyERNS_3ZZXERKNS_3MatINS_2ZZEEEl
libntl.so.44:_ZN3NTL8PowerModERNS_2ZZERKS0_S3_S3_
libntl.so.44:_ZN3NTL8SetCoeffERNS_3ZZXEl
libntl.so.44:_ZN3NTL8SetCoeffERNS_3ZZXElRKNS_2ZZE
libntl.so.44:_ZN3NTL8SetCoeffERNS_3ZZXEll
libntl.so.44:_ZN3NTL8SetCoeffERNS_5ZZ_pXElRKNS_4ZZ_pE
libntl.so.44:_ZN3NTL8SetCoeffERNS_5ZZ_pXEll
libntl.so.44:_ZN3NTL8ZZ_pInfoE
libntl.so.44:_ZN3NTL8zz_pInfoE
libntl.so.44:_ZN3NTL9ComputePiERNS_2RRE
libntl.so.44:_ZN3NTL9ConstTermERKNS_5ZZ_pXE
libntl.so.44:_ZN3NTL9FindRootsERNS_3VecINS_4ZZ_pEEERKNS_5ZZ_pXE
libntl.so.44:_ZN3NTL9MakeMonicERNS_5ZZ_pXE
libntl.so.44:_ZN3NTL9PowerXModERNS_5ZZ_pXERKNS_2ZZERKNS_12ZZ_pXModulusE
libntl.so.44:_ZN3NTL9ProbPrimeERKNS_2ZZEl
libntl.so.44:_ZN3NTL9RandomBndERNS_2ZZERKS0_
libntl.so.44:_ZN3NTL9RoundToZZERNS_2ZZERKNS_2RRE
libntl.so.44:_ZN3NTLeqERKNS_2RREd
libntl.so.44:_ZN3NTLeqERKNS_4ZZ_pEl
libntl.so.44:_ZN3NTLlsERSoRKNS_2RRE
libntl.so.44:_ZN3NTLlsERSoRKNS_2ZZE
libntl.so.44:_ZN3NTLlsERSoRKNS_3ZZXE
libntl.so.44:_ZN3NTLlsERSoRKNS_5ZZ_pXE
libntl.so.44:_ZN3NTLrsERSiRNS_2RRE
libntl.so.44:_ZN3NTLrsERSiRNS_2ZZE
libntl.so.44:_ZNK3NTL11ZZ_pContext7restoreEv
libntl.so.44:_ZNK3NTL11zz_pContext7restoreEv
libpari-gmp-tls.so.8:GENtostr
libpari-gmp-tls.so.8:Z_factor
libpari-gmp-tls.so.8:avma
libpari-gmp-tls.so.8:ellap
libpari-gmp-tls.so.8:ellinit
libpari-gmp-tls.so.8:gen_0
libpari-gmp-tls.so.8:isprime
libpari-gmp-tls.so.8:mkvecn
libpari-gmp-tls.so.8:new_chunk_resize
libpari-gmp-tls.so.8:pari_err
libpari-gmp-tls.so.8:pari_init
libpari-gmp-tls.so.8:pari_mainstack
libpari-gmp-tls.so.8:strtoi
libstdc++.so.6:_ZNKSt11logic_error4whatEv
libstdc++.so.6:_ZNKSt12__basic_fileIcE7is_openEv
libstdc++.so.6:_ZNKSt13bad_exception4whatEv
libstdc++.so.6:_ZNKSt13runtime_error4whatEv
libstdc++.so.6:_ZNKSt5ctypeIcE13_M_widen_initEv
libstdc++.so.6:_ZNKSt7__cxx1115basic_stringbufIcSt11char_traitsIcESaIcEE3strEv
libstdc++.so.6:_ZNKSt8__detail20_Prime_rehash_policy14_M_need_rehashEmmm
libstdc++.so.6:_ZNKSt9bad_alloc4whatEv
libstdc++.so.6:_ZNSdD2Ev
libstdc++.so.6:_ZNSi10_M_extractIdEERSiRT_
libstdc++.so.6:_ZNSi10_M_extractIlEERSiRT_
libstdc++.so.6:_ZNSi3getERc
libstdc++.so.6:_ZNSi4readEPcl
libstdc++.so.6:_ZNSi5ungetEv
libstdc++.so.6:_ZNSi7putbackEc
libstdc++.so.6:_ZNSirsERi
libstdc++.so.6:_ZNSo3putEc
libstdc++.so.6:_ZNSo5flushEv
libstdc++.so.6:_ZNSo5writeEPKcl
libstdc++.so.6:_ZNSo9_M_insertIPKvEERSoT_
libstdc++.so.6:_ZNSo9_M_insertIdEERSoT_
libstdc++.so.6:_ZNSo9_M_insertIlEERSoT_
libstdc++.so.6:_ZNSo9_M_insertImEERSoT_
libstdc++.so.6:_ZNSolsEi
libstdc++.so.6:_ZNSolsEs
libstdc++.so.6:_ZNSt11logic_errorC2EPKc
libstdc++.so.6:_ZNSt11logic_errorC2ERKS_
libstdc++.so.6:_ZNSt11logic_errorD2Ev
libstdc++.so.6:_ZNSt12__basic_fileIcED1Ev
libstdc++.so.6:_ZNSt13bad_exceptionD2Ev
libstdc++.so.6:_ZNSt13basic_filebufIcSt11char_traitsIcEE4openEPKcSt13_Ios_Openmode
libstdc++.so.6:_ZNSt13basic_filebufIcSt11char_traitsIcEE5closeEv
libstdc++.so.6:_ZNSt13basic_filebufIcSt11char_traitsIcEEC1Ev
libstdc++.so.6:_ZNSt13basic_filebufIcSt11char_traitsIcEED1Ev
libstdc++.so.6:_ZNSt13runtime_errorC2ERKNSt7__cxx1112basic_stringIcSt11char_traitsIcESaIcEEE
libstdc++.so.6:_ZNSt13runtime_errorC2ERKS_
libstdc++.so.6:_ZNSt13runtime_errorD2Ev
libstdc++.so.6:_ZNSt14basic_ifstreamIcSt11char_traitsIcEEC1EPKcSt13_Ios_Openmode
libstdc++.so.6:_ZNSt14basic_ifstreamIcSt11char_traitsIcEED1Ev
libstdc++.so.6:_ZNSt14basic_ofstreamIcSt11char_traitsIcEE4openEPKcSt13_Ios_Openmode
libstdc++.so.6:_ZNSt14basic_ofstreamIcSt11char_traitsIcEE5closeEv
libstdc++.so.6:_ZNSt14basic_ofstreamIcSt11char_traitsIcEEC1EPKcSt13_Ios_Openmode
libstdc++.so.6:_ZNSt14basic_ofstreamIcSt11char_traitsIcEEC1Ev
libstdc++.so.6:_ZNSt14basic_ofstreamIcSt11char_traitsIcEED1Ev
libstdc++.so.6:_ZNSt15__exception_ptr13exception_ptr10_M_releaseEv
libstdc++.so.6:_ZNSt15__exception_ptr13exception_ptr9_M_addrefEv
libstdc++.so.6:_ZNSt15basic_streambufIcSt11char_traitsIcEE4syncEv
libstdc++.so.6:_ZNSt15basic_streambufIcSt11char_traitsIcEE5imbueERKSt6locale
libstdc++.so.6:_ZNSt15basic_streambufIcSt11char_traitsIcEE5uflowEv
libstdc++.so.6:_ZNSt15basic_streambufIcSt11char_traitsIcEE6setbufEPcl
libstdc++.so.6:_ZNSt15basic_streambufIcSt11char_traitsIcEE6xsgetnEPcl
libstdc++.so.6:_ZNSt15basic_streambufIcSt11char_traitsIcEE6xsputnEPKcl
libstdc++.so.6:_ZNSt15basic_streambufIcSt11char_traitsIcEE7seekoffElSt12_Ios_SeekdirSt13_Ios_Openmode
libstdc++.so.6:_ZNSt15basic_streambufIcSt11char_traitsIcEE7seekposESt4fposI11__mbstate_tESt13_Ios_Openmode
libstdc++.so.6:_ZNSt15basic_streambufIcSt11char_traitsIcEE8overflowEi
libstdc++.so.6:_ZNSt15basic_streambufIcSt11char_traitsIcEE9pbackfailEi
libstdc++.so.6:_ZNSt15basic_streambufIcSt11char_traitsIcEE9showmanycEv
libstdc++.so.6:_ZNSt15basic_streambufIcSt11char_traitsIcEE9underflowEv
libstdc++.so.6:_ZNSt16invalid_argumentC1EPKc
libstdc++.so.6:_ZNSt16invalid_argumentD1Ev
libstdc++.so.6:_ZNSt6localeC1Ev
libstdc++.so.6:_ZNSt6localeD1Ev
libstdc++.so.6:_ZNSt7__cxx1112basic_stringIcSt11char_traitsIcESaIcEE10_M_disposeEv
libstdc++.so.6:_ZNSt7__cxx1112basic_stringIcSt11char_traitsIcESaIcEE10_M_replaceEmmPKcm
libstdc++.so.6:_ZNSt7__cxx1112basic_stringIcSt11char_traitsIcESaIcEE4swapERS4_
libstdc++.so.6:_ZNSt7__cxx1112basic_stringIcSt11char_traitsIcESaIcEE6appendEPKc
libstdc++.so.6:_ZNSt7__cxx1112basic_stringIcSt11char_traitsIcESaIcEE7reserveEm
libstdc++.so.6:_ZNSt7__cxx1112basic_stringIcSt11char_traitsIcESaIcEE9_M_appendEPKcm
libstdc++.so.6:_ZNSt7__cxx1112basic_stringIcSt11char_traitsIcESaIcEE9_M_assignERKS4_
libstdc++.so.6:_ZNSt7__cxx1112basic_stringIcSt11char_traitsIcESaIcEE9_M_createERmm
libstdc++.so.6:_ZNSt7__cxx1112basic_stringIcSt11char_traitsIcESaIcEE9_M_mutateEmmPKcm
libstdc++.so.6:_ZNSt7__cxx1112basic_stringIcSt11char_traitsIcESaIcEEC1ERKS4_
libstdc++.so.6:_ZNSt7__cxx1112basic_stringIcSt11char_traitsIcESaIcEED1Ev
libstdc++.so.6:_ZNSt7__cxx1115basic_stringbufIcSt11char_traitsIcESaIcEE7_M_syncEPcmm
libstdc++.so.6:_ZNSt7__cxx1118basic_stringstreamIcSt11char_traitsIcESaIcEEC1Ev
libstdc++.so.6:_ZNSt7__cxx1118basic_stringstreamIcSt11char_traitsIcESaIcEED1Ev
libstdc++.so.6:_ZNSt7__cxx1119basic_istringstreamIcSt11char_traitsIcESaIcEED1Ev
libstdc++.so.6:_ZNSt7__cxx1119basic_ostringstreamIcSt11char_traitsIcESaIcEED1Ev
libstdc++.so.6:_ZNSt8__detail15_List_node_base7_M_hookEPS0_
libstdc++.so.6:_ZNSt8ios_baseC2Ev
libstdc++.so.6:_ZNSt8ios_baseD2Ev
libstdc++.so.6:_ZNSt9bad_allocD1Ev
libstdc++.so.6:_ZNSt9bad_allocD2Ev
libstdc++.so.6:_ZNSt9basic_iosIcSt11char_traitsIcEE4initEPSt15basic_streambufIcS1_E
libstdc++.so.6:_ZNSt9basic_iosIcSt11char_traitsIcEE5clearESt12_Ios_Iostate
libstdc++.so.6:_ZSt11_Hash_bytesPKvmm
libstdc++.so.6:_ZSt16__ostream_insertIcSt11char_traitsIcEERSt13basic_ostreamIT_T0_ES6_PKS3_l
libstdc++.so.6:_ZSt16__throw_bad_castv
libstdc++.so.6:_ZSt17__istream_extractRSiPcl
libstdc++.so.6:_ZSt17__throw_bad_allocv
libstdc++.so.6:_ZSt17rethrow_exceptionNSt15__exception_ptr13exception_ptrE
libstdc++.so.6:_ZSt18_Rb_tree_decrementPSt18_Rb_tree_node_base
libstdc++.so.6:_ZSt18_Rb_tree_incrementPKSt18_Rb_tree_node_base
libstdc++.so.6:_ZSt18_Rb_tree_incrementPSt18_Rb_tree_node_base
libstdc++.so.6:_ZSt19__throw_logic_errorPKc
libstdc++.so.6:_ZSt20__throw_length_errorPKc
libstdc++.so.6:_ZSt21ios_base_library_initv
libstdc++.so.6:_ZSt24__throw_out_of_range_fmtPKcz
libstdc++.so.6:_ZSt28_Rb_tree_rebalance_for_erasePSt18_Rb_tree_node_baseRS_
libstdc++.so.6:_ZSt28__throw_bad_array_new_lengthv
libstdc++.so.6:_ZSt29_Rb_tree_insert_and_rebalancebPSt18_Rb_tree_node_baseS0_RS_
libstdc++.so.6:_ZSt2wsIcSt11char_traitsIcEERSt13basic_istreamIT_T0_ES6_
libstdc++.so.6:_ZSt3cin
libstdc++.so.6:_ZSt4cerr
libstdc++.so.6:_ZSt4cout
libstdc++.so.6:_ZSt4endlIcSt11char_traitsIcEERSt13basic_ostreamIT_T0_ES6_
libstdc++.so.6:_ZSt9terminatev
libstdc++.so.6:_ZStlsISt11char_traitsIcEERSt13basic_ostreamIcT_ES5_PKc
libstdc++.so.6:_ZStrsIcSt11char_traitsIcEERSt13basic_istreamIT_T0_ES6_RS3_
libstdc++.so.6:_ZStrsIcSt11char_traitsIcESaIcEERSt13basic_istreamIT_T0_ES7_RNSt7__cxx1112basic_stringIS4_S5_T1_EE
libstdc++.so.6:_ZTISt11logic_error
libstdc++.so.6:_ZTISt13bad_exception
libstdc++.so.6:_ZTISt13runtime_error
libstdc++.so.6:_ZTISt15basic_streambufIcSt11char_traitsIcEE
libstdc++.so.6:_ZTISt16invalid_argument
libstdc++.so.6:_ZTISt9bad_alloc
libstdc++.so.6:_ZTTNSt7__cxx1118basic_stringstreamIcSt11char_traitsIcESaIcEEE
libstdc++.so.6:_ZTTNSt7__cxx1119basic_istringstreamIcSt11char_traitsIcESaIcEEE
libstdc++.so.6:_ZTTNSt7__cxx1119basic_ostringstreamIcSt11char_traitsIcESaIcEEE
libstdc++.so.6:_ZTTSt14basic_ifstreamIcSt11char_traitsIcEE
libstdc++.so.6:_ZTTSt14basic_ofstreamIcSt11char_traitsIcEE
libstdc++.so.6:_ZTVN10__cxxabiv117__class_type_infoE
libstdc++.so.6:_ZTVN10__cxxabiv120__si_class_type_infoE
libstdc++.so.6:_ZTVN10__cxxabiv121__vmi_class_type_infoE
libstdc++.so.6:_ZTVNSt7__cxx1115basic_stringbufIcSt11char_traitsIcESaIcEEE
libstdc++.so.6:_ZTVNSt7__cxx1118basic_stringstreamIcSt11char_traitsIcESaIcEEE
libstdc++.so.6:_ZTVNSt7__cxx1119basic_istringstreamIcSt11char_traitsIcESaIcEEE
libstdc++.so.6:_ZTVNSt7__cxx1119basic_ostringstreamIcSt11char_traitsIcESaIcEEE
libstdc++.so.6:_ZTVSi
libstdc++.so.6:_ZTVSt13basic_filebufIcSt11char_traitsIcEE
libstdc++.so.6:_ZTVSt14basic_ifstreamIcSt11char_traitsIcEE
libstdc++.so.6:_ZTVSt14basic_ofstreamIcSt11char_traitsIcEE
libstdc++.so.6:_ZTVSt15basic_streambufIcSt11char_traitsIcEE
libstdc++.so.6:_ZTVSt9bad_alloc
libstdc++.so.6:_ZTVSt9basic_iosIcSt11char_traitsIcEE
libstdc++.so.6:_ZdaPv
libstdc++.so.6:_ZdaPvm
libstdc++.so.6:_ZdlPvm
libstdc++.so.6:_Znam
libstdc++.so.6:_Znwm
libstdc++.so.6:__cxa_allocate_exception
libstdc++.so.6:__cxa_begin_catch
libstdc++.so.6:__cxa_demangle
libstdc++.so.6:__cxa_end_catch
libstdc++.so.6:__cxa_free_exception
libstdc++.so.6:__cxa_guard_abort
libstdc++.so.6:__cxa_guard_acquire
libstdc++.so.6:__cxa_guard_release
libstdc++.so.6:__cxa_rethrow
libstdc++.so.6:__cxa_throw
libstdc++.so.6:__cxa_throw_bad_array_new_length
libstdc++.so.6:__gxx_personality_v0
