libec.so.10:Point_cmp
libec.so.10:ZZ_pContextCache
libec.so.10:_Z10T_eigrangel
libec.so.10:_Z10Trace_FrobR8CurveRedRKN3NTL2ZZE
libec.so.10:_Z10booknumberii
libec.so.10:_Z10c4c6_to_aiRKN3NTL2ZZES2_RS0_S3_S3_S3_S3_
libec.so.10:_Z10c4c6_to_aiRKN3NTL2ZZES2_RS0_S3_S3_S3_S3_S3_S3_S3_S3_
libec.so.10:_Z10crossratioRK10bigcomplexS1_S1_S1_
libec.so.10:_Z10divide_outRN3NTL2ZZERKS0_
libec.so.10:_Z10divide_outRN3NTL2ZZEl
libec.so.10:_Z10eclib_datev
libec.so.10:_Z10eigenspaceRK5mat_iii
libec.so.10:_Z10eigenspaceRK5mat_lli
libec.so.10:_Z10eigenspaceRK5mat_mRKN3NTL2ZZEi
libec.so.10:_Z10eigenspaceRK6smat_iii
libec.so.10:_Z10eigenspaceRK6smat_lll
libec.so.10:_Z10first_stepRKN3NTL2RRES2_RNS_2ZZES4_S4_S4_
libec.so.10:_Z10get_curvesNSt7__cxx1112basic_stringIcSt11char_traitsIcESaIcEEEl
libec.so.10:_Z10getelllistRK8CurveRed
libec.so.10:_Z10getord_p_NRK8CurveRedRKN3NTL2ZZE
libec.so.10:_Z10initprimesNSt7__cxx1112basic_stringIcSt11char_traitsIcESaIcEEEi
libec.so.10:_Z10is_in_int2N3NTL2RREPPS0_l
libec.so.10:_Z10lambda_badRK8CurveRedRli
libec.so.10:_Z10less_apvecRKSt6vectorIlSaIlEES3_i
libec.so.10:_Z10lll_reduceiP5vec_m
libec.so.10:_Z10matmulmodpRK5mat_iS1_i
libec.so.10:_Z10matmulmodpRK5mat_lS1_l
libec.so.10:_Z10matmulmodpRK5mat_mS1_RKN3NTL2ZZE
libec.so.10:_Z10mult_mod_pRK6smat_iRK5vec_iRKi
libec.so.10:_Z10mult_mod_pRK6smat_iRK6svec_iRKi
libec.so.10:_Z10mult_mod_pRK6smat_iS1_RKi
libec.so.10:_Z10mult_mod_pRK6smat_lRK5vec_lRKl
libec.so.10:_Z10mult_mod_pRK6smat_lRK6svec_lRKl
libec.so.10:_Z10mult_mod_pRK6smat_lS1_RKl
libec.so.10:_Z10mult_mod_pRK6svec_iRK6smat_iRKi
libec.so.10:_Z10mult_mod_pRK6svec_lRK6smat_lRKl
libec.so.10:_Z10oldpkernelRK5mat_ii
libec.so.10:_Z10oldpkernelRK5mat_ll
libec.so.10:_Z10pCoTorsionRKSt6vectorI5PointSaIS0_EEi
libec.so.10:_Z10pdivs_pariRKN3NTL2ZZEi
libec.so.10:_Z10process_d3RK9quadraticRKN3NTL2ZZERKSt6vectorIS3_SaIS3_EESA_dS1_S1_RS3_SB_SB_ii
libec.so.10:_Z10realheightRK5Point
libec.so.10:_Z10realheightRKN3NTL2RREPK9Curvedata
libec.so.10:_Z10rootsequivPK7quarticS1_iRKSt6vectorIN3NTL2ZZESaIS4_EEi
libec.so.10:_Z10rootsexistRKN3NTL2ZZES2_S2_
libec.so.10:_Z10rootsexistRKN3NTL2ZZES2_S2_S2_
libec.so.10:_Z10rusin_lem3RKN3NTL2ZZES2_RS0_S3_S3_S3_S3_
libec.so.10:_Z10semistableRK8CurveRed
libec.so.10:_Z10showmatrixRK5mat_i
libec.so.10:_Z10showmatrixRK5mat_m
libec.so.10:_Z10solvecubicRK10bigcomplexS1_S1_
libec.so.10:_Z10sqfreedivsRKN3NTL2ZZE
libec.so.10:_Z10sqfreedivsRKN3NTL2ZZERKSt6vectorIS0_SaIS0_EE
libec.so.10:_Z10sqfreedivslRKSt6vectorIlSaIlEE
libec.so.10:_Z10sqrt_mod_mRN3NTL2ZZERKS0_S3_
libec.so.10:_Z10sqrt_mod_mRN3NTL2ZZERKS0_S3_RKSt6vectorIS0_SaIS0_EE
libec.so.10:_Z10start_timev
libec.so.10:_Z10testcancelv
libec.so.10:_Z10testlocsolRKN3NTL2ZZERKSt6vectorIS0_SaIS0_EES2_S7_
libec.so.10:_Z10testlocsolRKN3NTL2ZZERKSt6vectorIS0_SaIS0_EES2_S7_S2_S7_
libec.so.10:_Z10testlocsolRKN3NTL2ZZES2_S2_
libec.so.10:_Z11booknumber0ii
libec.so.10:_Z11calc_dv_infRKN3NTL2RRES2_S2_S2_
libec.so.10:_Z11cleardenomsSt6vectorIN3NTL2RRESaIS1_EE
libec.so.10:_Z11det_via_ntlRK5mat_ii
libec.so.10:_Z11det_via_ntlRK5mat_ll
libec.so.10:_Z11div_pol_oddRK9curvemodqi
libec.so.10:_Z11div_pol_oddRKN3NTL2ZZES2_S2_S2_S2_i
libec.so.10:_Z11ellpointtozRK9CurvedataRK8CperiodsRKN3NTL2RRES8_
libec.so.10:_Z11ellztopointR9CurvedataR8CperiodsRK10bigcomplex
libec.so.10:_Z11ellztopointR9CurvedataR8CperiodsRK10bigcomplexRKN3NTL2ZZE
libec.so.10:_Z11file_existsNSt7__cxx1112basic_stringIcSt11char_traitsIcESaIcEEE
libec.so.10:_Z11index_boundRSt6vectorI5PointSaIS0_EEii
libec.so.10:_Z11make_tor_ptR9CurvedataR8CperiodsRKN3NTL2RRES6_S6_RK10bigcomplex
libec.so.10:_Z11makepdivpolRK9curvemodqi
libec.so.10:_Z11nf_filenameB5cxx11lc
libec.so.10:_Z11nrootscubicRKN3NTL2ZZES2_S2_S2_
libec.so.10:_Z11nrootscubicllllPl
libec.so.10:_Z11of_filenameB5cxx11lc
libec.so.10:_Z11opt_x_shiftRK9CurvedataRN3NTL2ZZE
libec.so.10:_Z11pdivs_trialRKN3NTL2ZZEi
libec.so.10:_Z11peigenspaceRK5mat_iii
libec.so.10:_Z11peigenspaceRK5mat_lll
libec.so.10:_Z11peigenspaceRK5mat_mRKN3NTL2ZZES5_
libec.so.10:_Z11realroots11RKSt6vectorIN3NTL2RRESaIS1_EE
libec.so.10:_Z11reals_in_11RSt6vectorI10bigcomplexSaIS0_EE
libec.so.10:_Z11reduce_quadRKN3NTL2RRES2_
libec.so.10:_Z11ref_via_ntlRK5mat_iR5vec_iS3_RlS4_i
libec.so.10:_Z11ref_via_ntlRK5mat_lR5vec_lS3_RlS4_l
libec.so.10:_Z11solve_conicRK9quadraticRKN3NTL2ZZERKSt6vectorIS3_SaIS3_EERS3_SB_SB_i
libec.so.10:_Z11solve_conicRK9quadraticRKN3NTL2ZZERS3_S6_S6_i
libec.so.10:_Z11solve_conicRKN3NTL2ZZES2_S2_S2_RKSt6vectorIS0_SaIS0_EERS0_S8_S8_i
libec.so.10:_Z11solve_conicRKN3NTL2ZZES2_S2_S2_RS0_S3_S3_i
libec.so.10:_Z11testmodsqrtv
libec.so.10:_Z11two_torsionR9Curvedatai
libec.so.10:_Z11type3_covarRKN3NTL2RRES2_S2_S2_RK10bigcomplexi
libec.so.10:_Z12calc_dvd_infRKN3NTL2RRES2_S2_S2_
libec.so.10:_Z12discriminantRK10bigcomplexS1_S1_
libec.so.10:_Z12divide_exactRKN3NTL2ZZES2_RS0_
libec.so.10:_Z12divide_pointR9CurvedataRK5PointiRS1_
libec.so.10:_Z12lambda_bad_1RKN3NTL2ZZEllRl
libec.so.10:_Z12mul_by_n_denRKN3NTL2ZZES2_S2_S2_S2_i
libec.so.10:_Z12mul_by_n_numRKN3NTL2ZZES2_S2_S2_S2_i
libec.so.10:_Z12rank_via_ntlRK5mat_ii
libec.so.10:_Z12rank_via_ntlRK5mat_ll
libec.so.10:_Z12reduce_pointRK5PointRK9curvemodq
libec.so.10:_Z12restrict_matRK5mat_iRK10subspace_ii
libec.so.10:_Z12restrict_matRK5mat_lRK10subspace_li
libec.so.10:_Z12restrict_matRK5mat_mRK9msubspace
libec.so.10:_Z12restrict_matRK6smat_iRK10subspace_i
libec.so.10:_Z12restrict_matRK6smat_iRK11ssubspace_i
libec.so.10:_Z12restrict_matRK6smat_lRK11ssubspace_l
libec.so.10:_Z12show_versionRSo
libec.so.10:_Z12solvequarticRK10bigcomplexS1_S1_S1_
libec.so.10:_Z12testparamsolRK9quadraticRKN3NTL2ZZES1_S1_S1_i
libec.so.10:_Z12testparamsolRKN3NTL2ZZES2_S2_S2_RK9quadraticS5_S5_i
libec.so.10:_Z12weil_pairingRK9pointmodqS1_i
libec.so.10:_Z13Compute_EulerRN3NTL2RRE
libec.so.10:_Z13IntrootscubicRKN3NTL2ZZES2_S2_
libec.so.10:_Z13ecdb_filenameB5cxx11l
libec.so.10:_Z13echmodp_uptriRK5mat_iR5vec_iS3_RlS4_i
libec.so.10:_Z13echmodp_uptriRK5mat_lR5vec_lS3_RlS4_l
libec.so.10:_Z13eclib_versionB5cxx11v
libec.so.10:_Z13interval_testRKN3NTL2RRESt6vectorIS0_SaIS0_EEi
libec.so.10:_Z13is_squarefreel
libec.so.10:_Z13lattice_consti
libec.so.10:_Z13local_hilbertRKN3NTL2ZZES2_S2_
libec.so.10:_Z13makeprimitiveR5vec_m
libec.so.10:_Z13minimise_c4c6RKN3NTL2ZZES2_S2_RS0_S3_S3_S3_
libec.so.10:_Z13new_qpsolubleRK7quarticRKN3NTL2ZZEi
libec.so.10:_Z13new_qpsolubleRKN3NTL2ZZES2_S2_S2_S2_S2_i
libec.so.10:_Z13old_kroneckerll
libec.so.10:_Z13one_generatorR9curvemodqRN3NTL2ZZER9pointmodq
libec.so.10:_Z13points_from_xR9CurvedataRK11bigrational
libec.so.10:_Z13reduce_quad_1RKN3NTL2RRES2_
libec.so.10:_Z13reduce_quad_2RKN3NTL2RRES2_
libec.so.10:_Z13show_eqn_certRKN3NTL2ZZES2_S2_S2_S2_S2_
libec.so.10:_Z13subeigenspaceRK5mat_iiRK10subspace_ii
libec.so.10:_Z13subeigenspaceRK5mat_llRK10subspace_li
libec.so.10:_Z13subeigenspaceRK5mat_mRKN3NTL2ZZERK9msubspacei
libec.so.10:_Z13subeigenspaceRK6smat_iiRK11ssubspace_i
libec.so.10:_Z13subeigenspaceRK6smat_llRK11ssubspace_l
libec.so.10:_Z13three_torsionR9Curvedatai
libec.so.10:_Z13types12_covarRKN3NTL2ZZES2_S2_S2_RKNS_2RRES5_
libec.so.10:_Z14add_row_to_vecR5vec_iRK5mat_il
libec.so.10:_Z14add_row_to_vecR5vec_lRK5mat_ll
libec.so.10:_Z14comp_map_imageSt6vectorIiSaIiEERK5mat_l
libec.so.10:_Z14curve_filenameB5cxx11l
libec.so.10:_Z14expressvectorsRK5mat_iRK10subspace_i
libec.so.10:_Z14expressvectorsRK5mat_lRK10subspace_l
libec.so.10:_Z14get_populationRK6smat_i
libec.so.10:_Z14get_populationRK6smat_l
libec.so.10:_Z14getord_p_discrRK8CurveRedRKN3NTL2ZZE
libec.so.10:_Z14global_hilbertRK9quadraticRKN3NTL2ZZERKSt6vectorIS3_SaIS3_EERS3_
libec.so.10:_Z14global_hilbertRK9quadraticRKN3NTL2ZZERS3_
libec.so.10:_Z14global_hilbertRKN3NTL2ZZES2_RKSt6vectorIS0_SaIS0_EERS0_
libec.so.10:_Z14global_hilbertRKN3NTL2ZZES2_RS0_
libec.so.10:_Z14height_pairingR5PointS0_
libec.so.10:_Z14holzer_measureRKN3NTL2ZZES2_S2_S2_S2_S2_
libec.so.10:_Z14legendre_paramRKN3NTL2ZZES2_S2_S2_S2_S2_R9quadraticS4_S4_
libec.so.10:_Z14legendre_solveRKN3NTL2ZZES2_S2_RKSt6vectorIS0_SaIS0_EERS0_S8_S8_i
libec.so.10:_Z14legendre_solveRKN3NTL2ZZES2_S2_RS0_S3_S3_i
libec.so.10:_Z14locallysolubleRK7quarticRKSt6vectorIN3NTL2ZZESaIS4_EERS4_
libec.so.10:_Z14locallysolubleRKN3NTL2ZZES2_S2_RKSt6vectorIS0_SaIS0_EERS0_
libec.so.10:_Z14locallysolubleRKN3NTL2ZZES2_S2_S2_S2_RKSt6vectorIS0_SaIS0_EERS0_
libec.so.10:_Z14make_primitiveR6svec_i
libec.so.10:_Z14make_primitiveR6svec_l
libec.so.10:_Z14merge_points_1R9pointmodqRN3NTL2ZZES0_
libec.so.10:_Z14merge_points_2R9pointmodqRN3NTL2ZZES0_S3_S3_S0_
libec.so.10:_Z14my_order_pointRK9pointmodq
libec.so.10:_Z14my_order_pointRK9pointmodqRKN3NTL2ZZE
libec.so.10:_Z14my_order_pointRK9pointmodqRKN3NTL2ZZES5_
libec.so.10:_Z14new_codeletterB5cxx11i
libec.so.10:_Z14psubeigenspaceRK5mat_iiRK10subspace_ii
libec.so.10:_Z14psubeigenspaceRK5mat_llRK10subspace_ll
libec.so.10:_Z14psubeigenspaceRK5mat_mRKN3NTL2ZZERK9msubspaceS5_
libec.so.10:_Z14reduced_cubicsRKN3NTL2ZZEiii
libec.so.10:_Z14roots_of_cubicRK5Curve
libec.so.10:_Z14set_the_boundsRSt6vectorIdSaIdEEN3NTL2RRES4_S4_
libec.so.10:_Z14sparse_combineRK10subspace_iS1_
libec.so.10:_Z14sub_row_to_vecR5vec_iRK5mat_il
libec.so.10:_Z14sub_row_to_vecR5vec_lRK5mat_ll
libec.so.10:_Z14torsion_pointsR9Curvedata
libec.so.10:_Z14torsion_pointsR9CurvedataR8Cperiodsi
libec.so.10:_Z14torsion_pointsR9Curvedatai
libec.so.10:_Z15IntrootsquarticRKN3NTL2ZZES2_S2_S2_
libec.so.10:_Z15LocalRootNumberR8CurveRedRKN3NTL2ZZE
libec.so.10:_Z15PariKodairaCode12Kodaira_code
libec.so.10:_Z15apply_transformRN3NTL2ZZES1_S1_S1_S1_RK13scaled_unimod
libec.so.10:_Z15apply_transformRN3NTL2ZZES1_S1_S1_S1_RK6unimod
libec.so.10:_Z15check_transformRKN3NTL2ZZES2_S2_S2_S2_RK13scaled_unimodS2_S2_S2_S2_S2_
libec.so.10:_Z15check_transformRKN3NTL2ZZES2_S2_S2_S2_RK6unimodS2_S2_S2_S2_S2_
libec.so.10:_Z15compare_entriesPKvS0_
libec.so.10:_Z15div_pol_odd_recRK9curvemodqi
libec.so.10:_Z15division_pointsR9CurvedataR8CperiodsRK5Pointii
libec.so.10:_Z15division_pointsR9CurvedataRK5Pointii
libec.so.10:_Z15eclib_pari_initl
libec.so.10:_Z15getKodaira_codeRK8CurveRedRKN3NTL2ZZE
libec.so.10:_Z15include_real_11RSt3setIN3NTL2RRESt4lessIS1_ESaIS1_EERKSt6vectorI10bigcomplexSaIS8_EE
libec.so.10:_Z15legendre_reduceRKN3NTL2ZZES2_S2_RS0_S3_S3_i
libec.so.10:_Z15linear_relationR9pointmodqS0_RN3NTL2ZZE
libec.so.10:_Z15my_bg_algorithmRK9pointmodqS1_RKN3NTL2ZZES5_b
libec.so.10:_Z15old_calc_dv_infRKN3NTL2RRES2_S2_S2_S2_
libec.so.10:_Z15pdivs_trial_divRN3NTL2ZZERKS0_
libec.so.10:_Z15saturate_pointsR9CurvedataRSt6vectorI5PointSaIS2_EERlRS1_IlSaIlEEllii
libec.so.10:_Z15set_order_pointR9pointmodqRKN3NTL2ZZE
libec.so.10:_Z15silverman_boundRK9Curvedata
libec.so.10:_Z15sparse_restrictRK5mat_iRK10subspace_i
libec.so.10:_Z15tamagawa_primesR8CurveRedi
libec.so.10:_Z15three_torsion_xR9Curvedata
libec.so.10:_Z16GlobalRootNumberR8CurveRed
libec.so.10:_Z16boundedratapproxN3NTL2RRERNS_2ZZES2_RKS1_
libec.so.10:_Z16getord_p_j_denomRK8CurveRedRKN3NTL2ZZE
libec.so.10:_Z16legendre_via_lllRKN3NTL2ZZES2_S2_S2_S2_S2_RS0_S3_S3_
libec.so.10:_Z16liftmats_chineseRK6smat_iiS1_iRS_Ri
libec.so.10:_Z16liftmats_chineseRK6smat_llS1_lRS_Rl
libec.so.10:_Z16make_certificateRKN3NTL2ZZERKSt6vectorIS0_SaIS0_EES2_S7_S2_S7_RS0_S8_S8_
libec.so.10:_Z16make_certificateRKN3NTL2ZZES2_S2_RS0_S3_S3_
libec.so.10:_Z16old_calc_dvd_infRKN3NTL2RRES2_S2_S2_S2_
libec.so.10:_Z16order_real_rootsRSt6vectorIdSaIdEES_I10bigcomplexSaIS3_EE
libec.so.10:_Z16set_hasse_boundsRKN3NTL2ZZERS0_S3_
libec.so.10:_Z16solve_conic_diagRKN3NTL2ZZERKSt6vectorIS0_SaIS0_EES2_S7_RS0_S8_S8_i
libec.so.10:_Z16solverealquarticRKN3NTL2RRES2_S2_S2_S2_
libec.so.10:_Z16sqrt_mod_2_powerRN3NTL2ZZERKS0_i
libec.so.10:_Z16sqrt_mod_p_powerRN3NTL2ZZERKS0_S3_i
libec.so.10:_Z16transform_helperRKN3NTL2ZZES2_S2_S2_RK6unimod
libec.so.10:_Z16transform_helperRKSt6vectorIN3NTL2ZZESaIS1_EERK6unimod
libec.so.10:_Z16valid_invariantsRKN3NTL2ZZES2_
libec.so.10:_Z17Gamma_n_plus_halfl
libec.so.10:_Z17codeletter_to_intNSt7__cxx1112basic_stringIcSt11char_traitsIcESaIcEEE
libec.so.10:_Z17conic_diag_reduceRKN3NTL2ZZES2_RS0_S3_S3_i
libec.so.10:_Z17conservative_elimPillll
libec.so.10:_Z17conservative_elimPlllll
libec.so.10:_Z17evaluate_weil_polRK9pointmodqiS1_
libec.so.10:_Z17make_point_from_xP9CurvedataRKN3NTL2RRElP5Point
libec.so.10:_Z17make_point_from_xP9CurvedataRKN3NTL2ZZES4_P5Point
libec.so.10:_Z17mat_from_mat_zz_pRKN3NTL3MatINS_4zz_pEEEi
libec.so.10:_Z17mat_from_mat_zz_pRKN3NTL3MatINS_4zz_pEEEl
libec.so.10:_Z17mat_zz_p_from_matRK5mat_ii
libec.so.10:_Z17mat_zz_p_from_matRK5mat_ll
libec.so.10:_Z17new_qpsoluble_aceRKN3NTL2ZZES2_S2_S2_i
libec.so.10:_Z17reals_in_intervalRSt6vectorI10bigcomplexSaIS0_EES_IN3NTL2RRESaIS5_EE
libec.so.10:_Z17small_nf_filenameB5cxx11lc
libec.so.10:_Z17solve_conic_paramRK9quadraticRKN3NTL2ZZERKSt6vectorIS3_SaIS3_EERS_SB_SB_ii
libec.so.10:_Z17solve_conic_paramRK9quadraticRKN3NTL2ZZERS_S6_S6_ii
libec.so.10:_Z17solve_conic_paramRKN3NTL2ZZES2_S2_S2_R9quadraticS4_S4_ii
libec.so.10:_Z17solve_conic_paramRKN3NTL2ZZES2_S2_S2_RKSt6vectorIS0_SaIS0_EER9quadraticS9_S9_ii
libec.so.10:_Z18is_valid_conductorl
libec.so.10:_Z18lower_height_boundRK9Curvedatai
libec.so.10:_Z19division_points_by2R9CurvedataRK5Point
libec.so.10:_Z19division_polynomialP9Curvedatai
libec.so.10:_Z19egr_height_constantRK9Curvedata
libec.so.10:_Z19evaluate_weil_pol_0RK9pointmodqiS1_
libec.so.10:_Z19getenv_with_defaultNSt7__cxx1112basic_stringIcSt11char_traitsIcESaIcEEES4_
libec.so.10:_Z19legendre_solve_certRKN3NTL2ZZES2_S2_S2_S2_S2_RS0_S3_S3_
libec.so.10:_Z19my_isomorphism_typeR9curvemodqRN3NTL2ZZES3_R9pointmodqS5_
libec.so.10:_Z19new_legendre_reduceRKN3NTL2ZZES2_S2_RS0_S3_S3_i
libec.so.10:_Z19quadratic_covariantRN3NTL2ZZES1_S1_S1_S1_
libec.so.10:_Z1GiN3NTL2RRE
libec.so.10:_Z1PiN3NTL2RRE
libec.so.10:_Z1QiN3NTL2RRE
libec.so.10:_Z20conic_mordell_reduceRKN3NTL2ZZES2_S2_RS0_S3_S3_i
libec.so.10:_Z20pdivs_use_factorbaseRN3NTL2ZZESt3setIS0_St4lessIS0_ESaIS0_EE
libec.so.10:_Z20read_vec_from_stringNSt7__cxx1112basic_stringIcSt11char_traitsIcESaIcEEE
libec.so.10:_Z21compare_eclib_versioniii
libec.so.10:_Z21division_points_X_polRKN3NTL2ZZES2_S2_S2_S2_iS2_S2_
libec.so.10:_Z21legendre_solve_cert_1RKN3NTL2ZZES2_S2_S2_S2_S2_RS0_S3_S3_S3_
libec.so.10:_Z21local_Tamagawa_numberR8CurveRedRKN3NTL2ZZE
libec.so.10:_Z21single_curve_filenameB5cxx11l
libec.so.10:_Z22global_Tamagawa_numberR8CurveRedi
libec.so.10:_Z22lower_height_bound_altRK9Curvedata
libec.so.10:_Z23local_Tamagawa_exponentR8CurveRedRKN3NTL2ZZE
libec.so.10:_Z23my_isomorphism_type_newR9curvemodqRN3NTL2ZZES3_R9pointmodqS5_
libec.so.10:_Z23solve_nonsingular_cubicRKN3NTL2ZZES2_S2_
libec.so.10:_Z24global_Tamagawa_exponentR8CurveRedi
libec.so.10:_Z24make_point_from_x_and_htP9CurvedataSt6vectorIN3NTL2RRESaIS3_EERKS3_S7_P5Point
libec.so.10:_Z24solve_conic_diag_nontrivRKN3NTL2ZZERKSt6vectorIS0_SaIS0_EES2_S7_RS0_S8_S8_i
libec.so.10:_Z25MapPointsToComponentGroupRK15ComponentGroupsRKSt6vectorI5PointSaIS3_EERKN3NTL2ZZE
libec.so.10:_Z25lower_height_bound_searchRK9CurvedataRKN3NTL2RRE
libec.so.10:_Z26output_to_file_no_newformslii
libec.so.10:_Z2CGiN3NTL2RRE
libec.so.10:_Z2Piv
libec.so.10:_Z2eqRK7P2PointS1_
libec.so.10:_Z2hjRK9CurvedataRd
libec.so.10:_Z2nlRSt14basic_ofstreamIcSt11char_traitsIcEEi
libec.so.10:_Z2qcR7quarticRKN3NTL2ZZES4_S4_P9CurvedataS6_S4_S4_S4_S4_R5Pointi
libec.so.10:_Z3detPN3NTL2RREl
libec.so.10:_Z3dimRK5vec_m
libec.so.10:_Z3divRKN3NTL2ZZES2_
libec.so.10:_Z3divlRKN3NTL2ZZE
libec.so.10:_Z3gcdRKN3NTL2ZZEl
libec.so.10:_Z3gcdii
libec.so.10:_Z3gcdll
libec.so.10:_Z3i2li
libec.so.10:_Z3kroRKN3NTL2ZZES2_
libec.so.10:_Z3kroRKN3NTL2ZZEl
libec.so.10:_Z3kroll
libec.so.10:_Z3l2il
libec.so.10:_Z3lcmll
libec.so.10:_Z3legll
libec.so.10:_Z3modRKN3NTL2ZZES2_
libec.so.10:_Z3modRKN3NTL2ZZEl
libec.so.10:_Z3modll
libec.so.10:_Z3sgni
libec.so.10:_Z3sqrRKN3NTL2RRE
libec.so.10:_Z3valRKN3NTL2ZZES2_
libec.so.10:_Z3vallRKN3NTL2ZZE
libec.so.10:_Z3valll
libec.so.10:_Z4asinRKN3NTL2RRE
libec.so.10:_Z4atanRKN3NTL2RRE
libec.so.10:_Z4cagmRK10bigcomplexS1_
libec.so.10:_Z4chi2RKN3NTL2ZZE
libec.so.10:_Z4chi2l
libec.so.10:_Z4chi4RKN3NTL2ZZE
libec.so.10:_Z4chi4l
libec.so.10:_Z4elimPN3NTL2ZZEllll
libec.so.10:_Z4elimPillll
libec.so.10:_Z4elimPlllll
libec.so.10:_Z4elimRK5vec_mRS_l
libec.so.10:_Z4iotai
libec.so.10:_Z4iotal
libec.so.10:_Z4lem1RKN3NTL2ZZES2_S2_S2_S2_S2_RS0_S3_S3_
libec.so.10:_Z4lem3RKN3NTL2ZZES2_RS0_S3_S3_S3_S3_
libec.so.10:_Z4lem4RKN3NTL2ZZES2_S2_S2_S2_S2_RS0_S3_S3_
libec.so.10:_Z4lgcdii
libec.so.10:_Z4lgcdll
libec.so.10:_Z4liftRK10subspace_iiRS_i
libec.so.10:_Z4liftRK10subspace_llRS_i
libec.so.10:_Z4liftRK5vec_i
libec.so.10:_Z4liftRK5vec_iiRS_
libec.so.10:_Z4liftRK5vec_llRS_
libec.so.10:_Z4liftRK5vec_mRKN3NTL2ZZE
libec.so.10:_Z4liftRK9msubspaceRKN3NTL2ZZEi
libec.so.10:_Z4llcmii
libec.so.10:_Z4llcmll
libec.so.10:_Z4minvRKN3NTL2ZZES2_S2_S2_S2_S2_RS0_S3_
libec.so.10:_Z4myg0N3NTL2RRE
libec.so.10:_Z4myg1N3NTL2RRE
libec.so.10:_Z4precv
libec.so.10:_Z4ran0Ri
libec.so.10:_Z4ran0Rl
libec.so.10:_Z4rediiiiP5vec_mPPN3NTL2ZZEPKS2_
libec.so.10:_Z4rootRKN3NTL2ZZEiS2_
libec.so.10:_Z4sdotPK5vec_mii
libec.so.10:_Z4showN3NTL2RRE
libec.so.10:_Z4showRKN3NTL2ZZE
libec.so.10:_Z4showRKSt6vectorIN3NTL2ZZESaIS1_EE
libec.so.10:_Z4showiPK5vec_mPPKN3NTL2ZZES5_
libec.so.10:_Z4sortRN3NTL2RRES1_S1_S1_
libec.so.10:_Z4testRKN3NTL2ZZES2_S2_RS0_S3_S3_
libec.so.10:_Z4try1PN3NTL2ZZE
libec.so.10:_Z4try1Pl
libec.so.10:_Z4val2m
libec.so.10:_Z5Eulerv
libec.so.10:_Z5GIgcdRKN3NTL2ZZES2_S2_S2_RS0_S3_
libec.so.10:_Z5I2intRKN3NTL2ZZE
libec.so.10:_Z5IceilN3NTL2RRE
libec.so.10:_Z5applyRK5mat_iRK5vec_i
libec.so.10:_Z5applyRK5mat_lRK5vec_l
libec.so.10:_Z5applyRK5mat_mRK5vec_m
libec.so.10:_Z5cagm1RK10bigcomplexS1_
libec.so.10:_Z5case1N3NTL2ZZES0_
libec.so.10:_Z5case1ll
libec.so.10:_Z5case2N3NTL2ZZES0_
libec.so.10:_Z5case2ll
libec.so.10:_Z5chordRK9pointmodqS1_
libec.so.10:_Z5chremRKN3NTL2ZZES2_S2_S2_
libec.so.10:_Z5clearPN3NTL2ZZEl
libec.so.10:_Z5clearPil
libec.so.10:_Z5clearPll
libec.so.10:_Z5desc2RKN3NTL2ZZES2_S2_RKSt6vectorIS0_SaIS0_EES7_S7_ldRS0_S8_S8_iii
libec.so.10:_Z5elim1RK5vec_mRS_l
libec.so.10:_Z5elim2RK5vec_mRS_lRKN3NTL2ZZE
libec.so.10:_Z5elimpRK5mat_illli
libec.so.10:_Z5elimpRK5mat_lllll
libec.so.10:_Z5elimpRK5mat_mlllRKN3NTL2ZZE
libec.so.10:_Z5ellapllllll
libec.so.10:_Z5equivPK7quarticS1_RKSt6vectorIN3NTL2ZZESaIS4_EEi
libec.so.10:_Z5geteiRK9CurvedataR10bigcomplexS3_S3_
libec.so.10:_Z5idmati
libec.so.10:_Z5idmatl
libec.so.10:_Z5imageRK5mat_ii
libec.so.10:_Z5imageRK5mat_li
libec.so.10:_Z5imageRK5mat_mi
libec.so.10:_Z5isqrtRKN3NTL2ZZERS0_
libec.so.10:_Z5iv2lvRKSt6vectorIiSaIiEE
libec.so.10:_Z5kro_3l
libec.so.10:_Z5lelimPillll
libec.so.10:_Z5lelimPlllll
libec.so.10:_Z5lem2aRKN3NTL2ZZES2_S2_S2_S2_S2_S2_RS0_S3_S3_
libec.so.10:_Z5lem2bRKN3NTL2ZZES2_S2_S2_S2_S2_S2_RS0_S3_S3_
libec.so.10:_Z5lem2cRKN3NTL2ZZES2_S2_S2_S2_S2_S2_RS0_S3_S3_
libec.so.10:_Z5lisogRK8CurveRedR8Cperiodsli
libec.so.10:_Z5lv2ivRKSt6vectorIlSaIlEE
libec.so.10:_Z5m1powRKN3NTL2ZZE
libec.so.10:_Z5orderR5Point
libec.so.10:_Z5orderR5PointRSt6vectorIS_SaIS_EE
libec.so.10:_Z5pdivsRKN3NTL2ZZEi
libec.so.10:_Z5pdivsl
libec.so.10:_Z5rootsRKN3NTL3ZZXE
libec.so.10:_Z5rootsRKN3NTL5ZZ_pXE
libec.so.10:_Z5rootsRKSt6vectorIN3NTL2ZZESaIS1_EE
libec.so.10:_Z5scaleRK7P2PointRKN3NTL2ZZEi
libec.so.10:_Z5scaleRK7P2Pointli
libec.so.10:_Z5shiftRK7P2PointRKN3NTL2ZZES5_S5_i
libec.so.10:_Z5ssqrtRKN3NTL2RRE
libec.so.10:_Z5step3iRiiP5vec_mPPN3NTL2ZZES4_
libec.so.10:_Z5swapiiiiP5vec_mPPN3NTL2ZZES3_
libec.so.10:_Z5testdRKN3NTL2ZZES2_S2_S2_S2_S2_S2_S2_S2_S2_S2_S2_S2_S2_S2_i
libec.so.10:_Z5zpsolRKN3NTL2ZZES2_S2_S2_S2_S2_S2_l
libec.so.10:_Z6GlargeiN3NTL2RRE
libec.so.10:_Z6GsmalliN3NTL2RRE
libec.so.10:_Z6I2longRKN3NTL2ZZE
libec.so.10:_Z6IfloorN3NTL2RRE
libec.so.10:_Z6IroundN3NTL2RRE
libec.so.10:_Z6aqlistSt6vectorIlSaIlEEl
libec.so.10:_Z6bezoutRKN3NTL2ZZES2_RS0_S3_
libec.so.10:_Z6bezoutRKN3NTL2ZZElRS0_S3_
libec.so.10:_Z6bezoutllRlS_
libec.so.10:_Z6cancelRN3NTL2ZZES1_S1_
libec.so.10:_Z6colcatRK5mat_iS1_
libec.so.10:_Z6colcatRK5mat_lS1_
libec.so.10:_Z6colcatRK5mat_mS1_
libec.so.10:_Z6elimp1RK5mat_illli
libec.so.10:_Z6elimp1RK5mat_lllll
libec.so.10:_Z6eqmodpRK6smat_iS1_RKi
libec.so.10:_Z6eqmodpRK6smat_lS1_RKl
libec.so.10:_Z6eqmodpRK6svec_iS1_RKi
libec.so.10:_Z6eqmodpRK6svec_lS1_RKl
libec.so.10:_Z6fact_cPN3NTL2ZZEi
libec.so.10:_Z6factorNSt7__cxx1112basic_stringIcSt11char_traitsIcESaIcEEE
libec.so.10:_Z6factorRKN3NTL2ZZEi
libec.so.10:_Z6getc_pRK8CurveRedRKN3NTL2ZZE
libec.so.10:_Z6heightR5Point
libec.so.10:_Z6invmodRKN3NTL2ZZES2_
libec.so.10:_Z6invmodRKN3NTL2ZZEl
libec.so.10:_Z6invmodll
libec.so.10:_Z6kernelRK5mat_ii
libec.so.10:_Z6kernelRK5mat_li
libec.so.10:_Z6kernelRK5mat_mi
libec.so.10:_Z6kernelRK6smat_ii
libec.so.10:_Z6kernelRK6smat_ll
libec.so.10:_Z6kro_m1l
libec.so.10:_Z6kro_m2l
libec.so.10:_Z6kro_p2l
libec.so.10:_Z6lclearPil
libec.so.10:_Z6lclearPll
libec.so.10:_Z6lem4_1RKN3NTL2ZZES2_S2_S2_S2_S2_RS0_S3_S3_S3_
libec.so.10:_Z6lemma6RKN3NTL2ZZES2_S2_S2_S2_S2_iS2_
libec.so.10:_Z6lemma7RKN3NTL2ZZES2_S2_S2_S2_S2_iS2_
libec.so.10:_Z6liftokR5vec_mRKN3NTL2ZZE
libec.so.10:_Z6make1dRK5vec_iRli
libec.so.10:_Z6make1dRK5vec_lRll
libec.so.10:_Z6memberRKN3NTL2ZZERK5vec_m
libec.so.10:_Z6memberiRK5vec_i
libec.so.10:_Z6memberlRK5vec_l
libec.so.10:_Z6midmatl
libec.so.10:_Z6modratRKN3NTL2ZZES2_S2_RS0_S3_
libec.so.10:_Z6modratiifRiS_
libec.so.10:_Z6modratllfRlS_
libec.so.10:_Z6n2listRKN3NTL2ZZES2_S2_S2_
libec.so.10:_Z6pimageRK5mat_ii
libec.so.10:_Z6pimageRK5mat_ll
libec.so.10:_Z6pimageRK5mat_mRKN3NTL2ZZE
libec.so.10:_Z6posmodRKN3NTL2ZZES2_
libec.so.10:_Z6posmodRKN3NTL2ZZEl
libec.so.10:_Z6posmodll
libec.so.10:_Z6prodcpRK8CurveRed
libec.so.10:_Z6putoutRSt14basic_ofstreamIcSt11char_traitsIcEEii
libec.so.10:_Z6putoutRSt14basic_ofstreamIcSt11char_traitsIcEEli
libec.so.10:_Z6putoutRSt14basic_ofstreamIcSt11char_traitsIcEEsi
libec.so.10:_Z6reduceRKN3NTL3ZZXERK12galois_field
libec.so.10:_Z6reduceRN3NTL2ZZES1_S1_S1_S1_R6unimod
libec.so.10:_Z6root_pRKN3NTL2ZZES2_S2_S2_S2_S2_
libec.so.10:_Z6rowcatRK5mat_iS1_
libec.so.10:_Z6rowcatRK5mat_lS1_
libec.so.10:_Z6rowcatRK5mat_mS1_
libec.so.10:_Z6shouldRKN3NTL2ZZES2_S2_
libec.so.10:_Z6sidmati
libec.so.10:_Z6sidmatl
libec.so.10:_Z6sqdivsRKN3NTL2ZZE
libec.so.10:_Z6sqdivsRKN3NTL2ZZERKSt6vectorIS0_SaIS0_EE
libec.so.10:_Z6sqdivslRKSt6vectorIlSaIlEE
libec.so.10:_Z6sqfmulRKN3NTL2ZZES2_
libec.so.10:_Z6sqfredRKN3NTL2ZZERKSt6vectorIS0_SaIS0_EE
libec.so.10:_Z6sqrtnrRN3NTL2ZZERKS0_
libec.so.10:_Z6sqrtq2RN3NTL2ZZERKS0_
libec.so.10:_Z6submatRK5mat_iRK5vec_iS4_
libec.so.10:_Z6submatRK5mat_lRK5vec_lS4_
libec.so.10:_Z6updateRK5mat_iR5vec_il
libec.so.10:_Z6vecgcdRK5vec_i
libec.so.10:_Z6vecgcdRK5vec_l
libec.so.10:_Z6xshiftRKN3NTL2ZZERS0_S3_S3_S3_S3_R6unimod
libec.so.10:_Z6zshiftRKN3NTL2ZZERS0_S3_S3_S3_S3_R6unimod
libec.so.10:_Z7Gamma_nl
libec.so.10:_Z7addmodpRK5vec_mS1_RKN3NTL2ZZE
libec.so.10:_Z7alldivsRKN3NTL2ZZE
libec.so.10:_Z7alldivsRKN3NTL2ZZERKSt6vectorIS0_SaIS0_EE
libec.so.10:_Z7alldivslRKSt6vectorIlSaIlEE
libec.so.10:_Z7cancel1RN3NTL2ZZES1_S1_
libec.so.10:_Z7checkinRKN3NTL2ZZES2_S2_S2_S2_S2_
libec.so.10:_Z7combineRK10subspace_iS1_
libec.so.10:_Z7combineRK10subspace_lS1_
libec.so.10:_Z7combineRK11ssubspace_iS1_
libec.so.10:_Z7combineRK11ssubspace_lS1_
libec.so.10:_Z7combineRK9msubspaceS1_
libec.so.10:_Z7compratRKN3NTL2ZZES2_S2_S2_
libec.so.10:_Z7contentRK6svec_i
libec.so.10:_Z7contentRK6svec_l
libec.so.10:_Z7div_polRKN3NTL2ZZES2_S2_S2_S2_i
libec.so.10:_Z7dividesRKN3NTL2ZZES2_RS0_S3_
libec.so.10:_Z7dividesRKN3NTL2ZZElRS0_Rl
libec.so.10:_Z7dotmodpRK5vec_iS1_i
libec.so.10:_Z7dotmodpRK5vec_lS1_l
libec.so.10:_Z7dotmodpRK5vec_mS1_RKN3NTL2ZZE
libec.so.10:_Z7dotmodpRK6svec_iRK5vec_ii
libec.so.10:_Z7dotmodpRK6svec_iS1_i
libec.so.10:_Z7dotmodpRK6svec_lRK5vec_ll
libec.so.10:_Z7dotmodpRK6svec_lS1_l
libec.so.10:_Z7echelonRK5mat_iR5vec_iS3_RlS4_Rii
libec.so.10:_Z7echelonRK5mat_lR5vec_lS3_RlS4_S4_i
libec.so.10:_Z7echelonRK5mat_mR5vec_iS3_RlS4_RN3NTL2ZZEi
libec.so.10:_Z7echelonRK5mat_mR5vec_lS3_RlS4_RN3NTL2ZZEi
libec.so.10:_Z7echmodpRK5mat_iR5vec_iS3_RlS4_i
libec.so.10:_Z7echmodpRK5mat_lR5vec_lS3_RlS4_l
libec.so.10:_Z7echmodpRK5mat_mR5vec_iS3_RlS4_RKN3NTL2ZZE
libec.so.10:_Z7eiglistR8CurveRedi
libec.so.10:_Z7eiglistRK7newformi
libec.so.10:_Z7expressRK5vec_iS1_S1_
libec.so.10:_Z7expressRK5vec_lS1_S1_
libec.so.10:_Z7expressRK5vec_mS1_S1_
libec.so.10:_Z7getc4c6RK10bigcomplexS1_RS_S2_
libec.so.10:_Z7intlog2RlS_i
libec.so.10:_Z7inverseRK5mat_mRS_
libec.so.10:_Z7is_realRK10bigcomplex
libec.so.10:_Z7kbesselddi
libec.so.10:_Z7less_aplli
libec.so.10:_Z7liftmatRK5mat_iiRS_Rii
libec.so.10:_Z7liftmatRK5mat_llRS_Rli
libec.so.10:_Z7liftmatRK6smat_iiRS_Rii
libec.so.10:_Z7liftmatRK6smat_llRS_Rli
libec.so.10:_Z7logplusd
libec.so.10:_Z7longifyRKN3NTL2RRERli
libec.so.10:_Z7makenumRKSt6vectorIN3NTL2ZZESaIS1_EEl
libec.so.10:_Z7minim_pRN3NTL2ZZES1_S1_S1_S1_RKS0_R13scaled_unimod
libec.so.10:_Z7modsqrtRKN3NTL2ZZERKSt6vectorIS0_SaIS0_EERS0_
libec.so.10:_Z7mvecgcdRK5vec_m
libec.so.10:_Z7ndigitsi
libec.so.10:_Z7ndigitsl
libec.so.10:_Z7pheightRK5PointRKN3NTL2ZZE
libec.so.10:_Z7pkernelRK5mat_ii
libec.so.10:_Z7pkernelRK5mat_ll
libec.so.10:_Z7pkernelRK5mat_mRKN3NTL2ZZE
libec.so.10:_Z7posdivsRKN3NTL2ZZE
libec.so.10:_Z7posdivsRKN3NTL2ZZERKSt6vectorIS0_SaIS0_EE
libec.so.10:_Z7posdivslRKSt6vectorIlSaIlEE
libec.so.10:_Z7primdivl
libec.so.10:_Z7psquareRKN3NTL2ZZES2_
libec.so.10:_Z7reverseR5vec_i
libec.so.10:_Z7reverseR5vec_l
libec.so.10:_Z7roots11RKSt6vectorIN3NTL2RRESaIS1_EE
libec.so.10:_Z7setprecl
libec.so.10:_Z7showrowPiPl
libec.so.10:_Z7showrowPiS_
libec.so.10:_Z7supportRKN3NTL2ZZE
libec.so.10:_Z7swapvecR5vec_iS0_
libec.so.10:_Z7swapvecR5vec_lS0_
libec.so.10:_Z7swapvecR5vec_mS0_
libec.so.10:_Z7tangentRK9pointmodq
libec.so.10:_Z7testsolRK9quadraticRKN3NTL2ZZES5_S5_S5_i
libec.so.10:_Z7testsolRKN3NTL2ZZES2_S2_S2_S2_S2_S2_i
libec.so.10:_Z7testsqfv
libec.so.10:_Z7trivialRK5vec_i
libec.so.10:_Z7trivialRK5vec_l
libec.so.10:_Z7trivialRK5vec_m
libec.so.10:_Z7twoisogRK8CurveRedi
libec.so.10:_Z8GIreduceRKN3NTL2ZZES2_S2_S2_RS0_S3_
libec.so.10:_Z8RsolubleRK7quartic
libec.so.10:_Z8RsolubleRKN3NTL2ZZES2_S2_S2_S2_
libec.so.10:_Z8bezout_xllRl
libec.so.10:_Z8cps_realRKN3NTL2RRES2_S2_S2_
libec.so.10:_Z8echelon0RK5mat_iR5vec_iS3_RlS4_Ri
libec.so.10:_Z8echelon0RK5mat_lR5vec_lS3_RlS4_S4_
libec.so.10:_Z8echelon0RK5mat_mR5vec_iS3_RlS4_RN3NTL2ZZE
libec.so.10:_Z8echelonlRK5mat_iR5vec_iS3_RlS4_Ri
libec.so.10:_Z8echelonlRK5mat_lR5vec_lS3_RlS4_S4_
libec.so.10:_Z8echelonpRK5mat_iR5vec_iS3_RlS4_Rii
libec.so.10:_Z8echelonpRK5mat_lR5vec_lS3_RlS4_S4_l
libec.so.10:_Z8echelonpRK5mat_mR5vec_iS3_RlS4_RN3NTL2ZZERKS6_
libec.so.10:_Z8elimrowsR5mat_illl
libec.so.10:_Z8elimrowsR5mat_llll
libec.so.10:_Z8elimrowsR5mat_mlll
libec.so.10:_Z8evaluateRKN3NTL5ZZ_pXERKNS_4ZZ_pE
libec.so.10:_Z8exponentR8CurveRedl
libec.so.10:_Z8getcurveR9Curvedatai
libec.so.10:_Z8getcurveRSt6vectorI11bigrationalSaIS0_EEi
libec.so.10:_Z8hilbert2RKN3NTL2ZZES2_
libec.so.10:_Z8hilbert2RKN3NTL2ZZEl
libec.so.10:_Z8hilbert2lRKN3NTL2ZZE
libec.so.10:_Z8hilbert2ll
libec.so.10:_Z8introotsRKN3NTL3ZZXE
libec.so.10:_Z8is_primeNSt7__cxx1112basic_stringIcSt11char_traitsIcESaIcEEE
libec.so.10:_Z8is_primeRKN3NTL2ZZE
libec.so.10:_Z8is_smallN3NTL2RRE
libec.so.10:_Z8is_smallRK10bigcomplex
libec.so.10:_Z8jumpsymb4symbS_
libec.so.10:_Z8legendreRKN3NTL2ZZES2_
libec.so.10:_Z8legendreRKN3NTL2ZZEl
libec.so.10:_Z8legendrell
libec.so.10:_Z8lem1plusRKN3NTL2ZZES2_S2_S2_S2_S2_RS0_S3_S3_
libec.so.10:_Z8m_invertRN3NTL2ZZES1_S1_S1_S1_R13scaled_unimod
libec.so.10:_Z8m_invertRN3NTL2ZZES1_S1_S1_S1_R6unimod
libec.so.10:_Z8min_realSt6vectorI10bigcomplexSaIS0_EE
libec.so.10:_Z8one_stepRKN3NTL2RRES2_S2_RNS_2ZZES4_S4_S4_
libec.so.10:_Z8pcombineRK10subspace_iS1_i
libec.so.10:_Z8pcombineRK10subspace_lS1_l
libec.so.10:_Z8pcombineRK9msubspaceS1_RKN3NTL2ZZE
libec.so.10:_Z8prime_pil
libec.so.10:_Z8ratpointRK7quarticRKN3NTL2ZZES5_RS3_S6_S6_
libec.so.10:_Z8reals_inRSt6vectorI10bigcomplexSaIS0_EE
libec.so.10:_Z8reduce_bRN3NTL2ZZES1_S1_S1_S1_R6unimod
libec.so.10:_Z8reorder1R10bigcomplexS0_S0_
libec.so.10:_Z8reorder2R10bigcomplexS0_S0_
libec.so.10:_Z8rootsmodRKSt6vectorIN3NTL2ZZESaIS1_EES1_
libec.so.10:_Z8show_allRKN3NTL2ZZES2_S2_S2_S2_S2_RS0_S3_S3_
libec.so.10:_Z8show_eqnRKN3NTL2ZZES2_S2_
libec.so.10:_Z8show_xyzRKN3NTL2ZZES2_S2_
libec.so.10:_Z8sparsityRK5mat_i
libec.so.10:_Z8sparsityRK5mat_l
libec.so.10:_Z8tidy_lcmRN3NTL2ZZES1_
libec.so.10:_Z8verticalRK9pointmodq
libec.so.10:_Z8weil_polRK9pointmodqi
libec.so.10:_Z9addscalarRK5mat_ii
libec.so.10:_Z9addscalarRK5mat_ll
libec.so.10:_Z9addscalarRK5mat_mRKN3NTL2ZZE
libec.so.10:_Z9check_legRKN3NTL2ZZES2_S2_RS0_S3_S3_
libec.so.10:_Z9check_legRKN3NTL2ZZES2_S2_S2_S2_S2_RS0_S3_S3_
libec.so.10:_Z9cps_boundRK9Curvedata
libec.so.10:_Z9cube_rootRK10bigcomplex
libec.so.10:_Z9cube_rootRKN3NTL2RRE
libec.so.10:_Z9det_minorPN3NTL2RRElll
libec.so.10:_Z9directsumRK5mat_iS1_
libec.so.10:_Z9directsumRK5mat_lS1_
libec.so.10:_Z9directsumRK5mat_mS1_
libec.so.10:_Z9div_pol_2RKN3NTL2ZZES2_S2_S2_S2_
libec.so.10:_Z9egr_indexRKSt6vectorI5PointSaIS0_EEi
libec.so.10:_Z9eiperiods10bigcomplexS_S_RS_S0_
libec.so.10:_Z9elimrows1R5mat_illl
libec.so.10:_Z9elimrows1R5mat_llll
libec.so.10:_Z9elimrows1R5mat_mlll
libec.so.10:_Z9elimrows2R5mat_illli
libec.so.10:_Z9elimrows2R5mat_lllll
libec.so.10:_Z9elimrows2R5mat_mlllRKN3NTL2ZZE
libec.so.10:_Z9factoriall
libec.so.10:_Z9g_contentRKN3NTL2ZZES2_S2_S2_S2_
libec.so.10:_Z9get_curvellllRKN3NTL2RRES2_RlS3_Rii
libec.so.10:_Z9get_minorPN3NTL2RRElll
libec.so.10:_Z9getbasis1PK11ssubspace_i
libec.so.10:_Z9init_timev
libec.so.10:_Z9intbezoutiiRiS_
libec.so.10:_Z9intersectRKSt6vectorI10Interval01SaIS0_EES4_
libec.so.10:_Z9intersectRKSt6vectorI8IntervalSaIS0_EES4_
libec.so.10:_Z9is_in_intN3NTL2RRES0_S0_S0_S0_l
libec.so.10:_Z9is_nonminillli
libec.so.10:_Z9kroneckerRKN3NTL2ZZES2_
libec.so.10:_Z9kroneckerRKN3NTL2ZZEl
libec.so.10:_Z9kroneckerll
libec.so.10:_Z9lem1minusRKN3NTL2ZZES2_S2_S2_S2_S2_RS0_S3_S3_
libec.so.10:_Z9local_solRKN3NTL2ZZEPS0_i
libec.so.10:_Z9m_torsionR9Curvedatali
libec.so.10:_Z9makeindexRKSt6vectorIN3NTL2ZZESaIS1_EERKS1_RS1_
libec.so.10:_Z9minim_allRN3NTL2ZZES1_S1_S1_S1_S1_S1_RKSt6vectorIS0_SaIS0_EER13scaled_unimodii
libec.so.10:_Z9new_equivP7quarticS0_i
libec.so.10:_Z9new_zpsolRKN3NTL2ZZES2_S2_S2_S2_S2_i
libec.so.10:_Z9normalizeR10bigcomplexS0_
libec.so.10:_Z9orderrealRN3NTL2RRES1_S1_
libec.so.10:_Z9prestrictRK5mat_iRK10subspace_iii
libec.so.10:_Z9prestrictRK5mat_lRK10subspace_lli
libec.so.10:_Z9prestrictRK5mat_mRK9msubspaceRKN3NTL2ZZE
libec.so.10:_Z9qpsolubleRK7quarticRKN3NTL2ZZE
libec.so.10:_Z9qpsolubleRKN3NTL2ZZES2_S2_S2_
libec.so.10:_Z9qpsolubleRKN3NTL2ZZES2_S2_S2_S2_S2_
libec.so.10:_Z9quadsolveRKN3NTL2RRES2_R10bigcomplexS4_
libec.so.10:_Z9ratapproxN3NTL2RRERNS_2ZZES2_RKS1_
libec.so.10:_Z9ratapproxN3NTL2RRERlS1_l
libec.so.10:_Z9realrootsRKSt6vectorIN3NTL2RRESaIS1_EE
libec.so.10:_Z9regulatorRSt6vectorI5PointSaIS0_EE
libec.so.10:_Z9resultantRK9quadraticS1_
libec.so.10:_Z9safe_sqrtRKN3NTL2RRE
libec.so.10:_Z9show_certRKN3NTL2ZZES2_S2_
libec.so.10:_Z9show_timeRSo
libec.so.10:_Z9showpoint5Point
libec.so.10:_Z9showpoint5PointP9CurvedataRKN3NTL2ZZES5_S5_S5_
libec.so.10:_Z9sqfdecompRKN3NTL2ZZERS0_S3_RSt6vectorIS0_SaIS0_EEi
libec.so.10:_Z9sqfdecompRKN3NTL2ZZERSt6vectorIS0_SaIS0_EERS0_S7_
libec.so.10:_Z9stop_timev
libec.so.10:_Z9submatrixRK5mat_mRK5vec_iS4_
libec.so.10:_Z9threeisogRK8CurveRedi
libec.so.10:_Z9transformRK5PointP9CurvedataRKN3NTL2ZZES7_S7_S7_i
libec.so.10:_Z9transformRK5cubicRK6unimod
libec.so.10:_Z9transformRK7P2PointRKN3NTL2ZZES5_S5_S5_i
libec.so.10:_Z9transposeRK5mat_i
libec.so.10:_Z9transposeRK5mat_l
libec.so.10:_Z9transposeRK5mat_m
libec.so.10:_Z9transposeRK6smat_i
libec.so.10:_Z9transposeRK6smat_l
libec.so.10:_ZN10Interval019intersectERKS_
libec.so.10:_ZN10primeclass4initEl
libec.so.10:_ZN10primeclass5resetEv
libec.so.10:_ZN10primeclass6at_endEv
libec.so.10:_ZN10primeclass6numberEl
libec.so.10:_ZN10primeclass7advanceEv
libec.so.10:_ZN10primeclass8getfirstEl
libec.so.10:_ZN10primeclassC1El
libec.so.10:_ZN10primeclassC1Ev
libec.so.10:_ZN10primeclassC2El
libec.so.10:_ZN10primeclassC2Ev
libec.so.10:_ZN10primeclassD1Ev
libec.so.10:_ZN10primeclassD2Ev
libec.so.10:_ZN10subspace_iC1ERK5mat_iRK5vec_ii
libec.so.10:_ZN10subspace_iC1ERKS_
libec.so.10:_ZN10subspace_iC1Ei
libec.so.10:_ZN10subspace_iC2ERK5mat_iRK5vec_ii
libec.so.10:_ZN10subspace_iC2ERKS_
libec.so.10:_ZN10subspace_iC2Ei
libec.so.10:_ZN10subspace_iD1Ev
libec.so.10:_ZN10subspace_iD2Ev
libec.so.10:_ZN10subspace_iaSERKS_
libec.so.10:_ZN10subspace_lC1ERK5mat_lRK5vec_ll
libec.so.10:_ZN10subspace_lC1ERKS_
libec.so.10:_ZN10subspace_lC1Ei
libec.so.10:_ZN10subspace_lC2ERK5mat_lRK5vec_ll
libec.so.10:_ZN10subspace_lC2ERKS_
libec.so.10:_ZN10subspace_lC2Ei
libec.so.10:_ZN10subspace_lD1Ev
libec.so.10:_ZN10subspace_lD2Ev
libec.so.10:_ZN10subspace_laSERKS_
libec.so.10:_ZN10threadpool13getMaxThreadsEv
libec.so.10:_ZN10threadpool14getThreadCountEv
libec.so.10:_ZN10threadpool5closeEv
libec.so.10:_ZN10threadpool5startEji
libec.so.10:_ZN10threadpoolC1Eji
libec.so.10:_ZN10threadpoolC1Ev
libec.so.10:_ZN10threadpoolC2Eji
libec.so.10:_ZN10threadpoolC2Ev
libec.so.10:_ZN10threadpoolD1Ev
libec.so.10:_ZN10threadpoolD2Ev
libec.so.10:_ZN11part_period7computeERK10bigcomplex
libec.so.10:_ZN11part_period7computeEv
libec.so.10:_ZN11part_periodC1EPK5levelPK7newform
libec.so.10:_ZN11part_periodC2EPK5levelPK7newform
libec.so.10:_ZN11smat_i_elim10free_spaceEi
libec.so.10:_ZN11smat_i_elim10get_weightEiPi
libec.so.10:_ZN11smat_i_elim10new_kernelER5vec_iS1_
libec.so.10:_ZN11smat_i_elim10old_kernelER5vec_iS1_
libec.so.10:_ZN11smat_i_elim10step5denseEv
libec.so.10:_ZN11smat_i_elim13n_active_colsEv
libec.so.10:_ZN11smat_i_elim13n_active_rowsEv
libec.so.10:_ZN11smat_i_elim14active_densityEv
libec.so.10:_ZN11smat_i_elim14has_weight_oneEiPi
libec.so.10:_ZN11smat_i_elim16n_active_entriesEv
libec.so.10:_ZN11smat_i_elim18sparse_eliminationEv
libec.so.10:_ZN11smat_i_elim4elimEiii
libec.so.10:_ZN11smat_i_elim4initEv
libec.so.10:_ZN11smat_i_elim4list4findERiii
libec.so.10:_ZN11smat_i_elim4list4growEv
libec.so.10:_ZN11smat_i_elim4list5clearEi
libec.so.10:_ZN11smat_i_elim4list8listsizeE
libec.so.10:_ZN11smat_i_elim4listC1Ei
libec.so.10:_ZN11smat_i_elim4listC2Ei
libec.so.10:_ZN11smat_i_elim4listD1Ev
libec.so.10:_ZN11smat_i_elim4listD2Ev
libec.so.10:_ZN11smat_i_elim5step0Ev
libec.so.10:_ZN11smat_i_elim5step1Ev
libec.so.10:_ZN11smat_i_elim5step2Ev
libec.so.10:_ZN11smat_i_elim5step3Ev
libec.so.10:_ZN11smat_i_elim5step4Ev
libec.so.10:_ZN11smat_i_elim6kernelER5vec_iS1_
libec.so.10:_ZN11smat_i_elim6reportEv
libec.so.10:_ZN11smat_i_elim7ordlist3putERNS_4listE
libec.so.10:_ZN11smat_i_elim7ordlist3putERi
libec.so.10:_ZN11smat_i_elim7ordlist6removeERNS_4listE
libec.so.10:_ZN11smat_i_elim7ordlist6removeERi
libec.so.10:_ZN11smat_i_elim8back_subEv
libec.so.10:_ZN11smat_i_elim8standardEv
libec.so.10:_ZN11smat_i_elim9check_colEiRNS_4listE
libec.so.10:_ZN11smat_i_elim9check_rowEiiRNS_4listE
libec.so.10:_ZN11smat_i_elim9clear_colEiiRNS_4listEiiiPi
libec.so.10:_ZN11smat_i_elim9eliminateERiS0_
libec.so.10:_ZN11smat_i_elim9normalizeEii
libec.so.10:_ZN11smat_i_elimD1Ev
libec.so.10:_ZN11smat_i_elimD2Ev
libec.so.10:_ZN11smat_l_elim10free_spaceEi
libec.so.10:_ZN11smat_l_elim10get_weightEiPi
libec.so.10:_ZN11smat_l_elim10new_kernelER5vec_lS1_
libec.so.10:_ZN11smat_l_elim10old_kernelER5vec_lS1_
libec.so.10:_ZN11smat_l_elim10step5denseEv
libec.so.10:_ZN11smat_l_elim13n_active_colsEv
libec.so.10:_ZN11smat_l_elim13n_active_rowsEv
libec.so.10:_ZN11smat_l_elim14active_densityEv
libec.so.10:_ZN11smat_l_elim14has_weight_oneEiPi
libec.so.10:_ZN11smat_l_elim16n_active_entriesEv
libec.so.10:_ZN11smat_l_elim18sparse_eliminationEv
libec.so.10:_ZN11smat_l_elim4elimEiil
libec.so.10:_ZN11smat_l_elim4initEv
libec.so.10:_ZN11smat_l_elim4list4findERiii
libec.so.10:_ZN11smat_l_elim4list4growEv
libec.so.10:_ZN11smat_l_elim4list5clearEi
libec.so.10:_ZN11smat_l_elim4list8listsizeE
libec.so.10:_ZN11smat_l_elim4listC1Ei
libec.so.10:_ZN11smat_l_elim4listC2Ei
libec.so.10:_ZN11smat_l_elim4listD1Ev
libec.so.10:_ZN11smat_l_elim4listD2Ev
libec.so.10:_ZN11smat_l_elim5step0Ev
libec.so.10:_ZN11smat_l_elim5step1Ev
libec.so.10:_ZN11smat_l_elim5step2Ev
libec.so.10:_ZN11smat_l_elim5step3Ev
libec.so.10:_ZN11smat_l_elim5step4Ev
libec.so.10:_ZN11smat_l_elim6kernelER5vec_lS1_
libec.so.10:_ZN11smat_l_elim6reportEv
libec.so.10:_ZN11smat_l_elim7ordlist3putERNS_4listE
libec.so.10:_ZN11smat_l_elim7ordlist3putERi
libec.so.10:_ZN11smat_l_elim7ordlist6removeERNS_4listE
libec.so.10:_ZN11smat_l_elim7ordlist6removeERi
libec.so.10:_ZN11smat_l_elim8back_subEv
libec.so.10:_ZN11smat_l_elim8standardEv
libec.so.10:_ZN11smat_l_elim9check_colEiRNS_4listE
libec.so.10:_ZN11smat_l_elim9check_rowEiiRNS_4listE
libec.so.10:_ZN11smat_l_elim9clear_colEiiRNS_4listEiiiPi
libec.so.10:_ZN11smat_l_elim9eliminateERiS0_
libec.so.10:_ZN11smat_l_elim9normalizeEii
libec.so.10:_ZN11smat_l_elimD1Ev
libec.so.10:_ZN11smat_l_elimD2Ev
libec.so.10:_ZN11ssubspace_iC1ERK6smat_iRK5vec_ii
libec.so.10:_ZN11ssubspace_iC1ERKS_
libec.so.10:_ZN11ssubspace_iC1Ei
libec.so.10:_ZN11ssubspace_iC2ERK6smat_iRK5vec_ii
libec.so.10:_ZN11ssubspace_iC2ERKS_
libec.so.10:_ZN11ssubspace_iC2Ei
libec.so.10:_ZN11ssubspace_iD1Ev
libec.so.10:_ZN11ssubspace_iD2Ev
libec.so.10:_ZN11ssubspace_iaSERKS_
libec.so.10:_ZN11ssubspace_lC1ERK6smat_lRK5vec_ll
libec.so.10:_ZN11ssubspace_lC1ERKS_
libec.so.10:_ZN11ssubspace_lC1Ei
libec.so.10:_ZN11ssubspace_lC2ERK6smat_lRK5vec_ll
libec.so.10:_ZN11ssubspace_lC2ERKS_
libec.so.10:_ZN11ssubspace_lC2Ei
libec.so.10:_ZN11ssubspace_lD1Ev
libec.so.10:_ZN11ssubspace_lD2Ev
libec.so.10:_ZN11ssubspace_laSERKS_
libec.so.10:_ZN11two_descent11pari_outputEv
libec.so.10:_ZN11two_descent14do_the_descentEllli
libec.so.10:_ZN11two_descent18show_result_statusEv
libec.so.10:_ZN11two_descent8getbasisEv
libec.so.10:_ZN11two_descent8saturateEll
libec.so.10:_ZN11two_descent9getpbasisEv
libec.so.10:_ZN11two_descent9show_gensEv
libec.so.10:_ZN11two_descentC1EP9Curvedataiillli
libec.so.10:_ZN11two_descentC1ESt6vectorI11bigrationalSaIS1_EEiillli
libec.so.10:_ZN11two_descentC2EP9Curvedataiillli
libec.so.10:_ZN11two_descentC2ESt6vectorI11bigrationalSaIS1_EEiillli
libec.so.10:_ZN12IsogenyClass4growEv
libec.so.10:_ZN12IsogenyClass7processEl
libec.so.10:_ZN12IsogenyClass8dumpdataERSol
libec.so.10:_ZN12IsogenyClassC1ERK8CurveRedi
libec.so.10:_ZN12IsogenyClassC2ERK8CurveRedi
libec.so.10:_ZN12form_finder210make_basisER7ff_data
libec.so.10:_ZN12form_finder210make_opmatElR7ff_data
libec.so.10:_ZN12form_finder211make_basis1ER7ff_data
libec.so.10:_ZN12form_finder211make_basis2ER7ff_dataRK5vec_i
libec.so.10:_ZN12form_finder211make_submatER7ff_data
libec.so.10:_ZN12form_finder218make_nested_submatElR7ff_data
libec.so.10:_ZN12form_finder24findER7ff_data
libec.so.10:_ZN12form_finder24findEv
libec.so.10:_ZN12form_finder25go_upER7ff_data
libec.so.10:_ZN12form_finder25storeE5vec_iS0_St6vectorIlSaIlEE
libec.so.10:_ZN12form_finder27go_downER7ff_datali
libec.so.10:_ZN12form_finder27recoverESt6vectorIS0_IlSaIlEESaIS2_EE
libec.so.10:_ZN12form_finder28splitoffERKSt6vectorIlSaIlEE
libec.so.10:_ZN12form_finder2C1EP13splitter_baseiiiiii
libec.so.10:_ZN12form_finder2C2EP13splitter_baseiiiiii
libec.so.10:_ZN12form_finder2D1Ev
libec.so.10:_ZN12form_finder2D2Ev
libec.so.10:_ZN12galois_fieldC1ERKN3NTL2ZZE
libec.so.10:_ZN12galois_fieldC1Ev
libec.so.10:_ZN12galois_fieldC2ERKN3NTL2ZZE
libec.so.10:_ZN12galois_fieldC2Ev
libec.so.10:_ZN13quartic_sieve12search_rangeEiN3NTL2RREiS1_i
libec.so.10:_ZN13quartic_sieve12stoll_searchEdi
libec.so.10:_ZN13quartic_sieve6searchEdli
libec.so.10:_ZN13quartic_sieveC1EP7quarticii
libec.so.10:_ZN13quartic_sieveC2EP7quarticii
libec.so.10:_ZN13quartic_sieveD0Ev
libec.so.10:_ZN13quartic_sieveD1Ev
libec.so.10:_ZN13quartic_sieveD2Ev
libec.so.10:_ZN14curvemodqbasis10get_pbasisEi
libec.so.10:_ZN14curvemodqbasis21get_pbasis_from_rootsEiRKSt6vectorIN3NTL4ZZ_pESaIS2_EE
libec.so.10:_ZN14curvemodqbasis21get_pbasis_via_divpolEi
libec.so.10:_ZN14curvemodqbasis21get_pbasis_via_divpolEiRKN3NTL3ZZXE
libec.so.10:_ZN14curvemodqbasis7get_genEi
libec.so.10:_ZN14curvemodqbasis9set_basisEv
libec.so.10:_ZN14periods_direct3useEll
libec.so.10:_ZN14periods_direct7computeEllll
libec.so.10:_ZN14periods_direct7computeEv
libec.so.10:_ZN14periods_directC1EPK5levelPK7newform
libec.so.10:_ZN14periods_directC2EPK5levelPK7newform
libec.so.10:_ZN15ComponentGroups12egr_subgroupERSt6vectorI5PointSaIS1_EEi
libec.so.10:_ZN15ComponentGroups21OrderInComponentGroupERK5PointRKN3NTL2ZZESt6vectorIiSaIiEE
libec.so.10:_ZN15ComponentGroups8gr1primeERSt6vectorI5PointSaIS1_EERKN3NTL2ZZE
libec.so.10:_ZN15ComponentGroups8grprimesERSt6vectorI5PointSaIS1_EERKS0_IN3NTL2ZZESaIS6_EE
libec.so.10:_ZN16CurveHeightConst10solveGEQ01ElRKN3NTL2RRE
libec.so.10:_ZN16CurveHeightConst10solveLEQ01ElRKN3NTL2RRE
libec.so.10:_ZN16CurveHeightConst11test_targetERKN3NTL2RREl
libec.so.10:_ZN16CurveHeightConst14compute_phase1Ev
libec.so.10:_ZN16CurveHeightConst14compute_phase2Ev
libec.so.10:_ZN16CurveHeightConst1DEl
libec.so.10:_ZN16CurveHeightConst25canonicalHeightInterval01ERKN3NTL2RREl
libec.so.10:_ZN16CurveHeightConst3e_pEl
libec.so.10:_ZN16CurveHeightConst3psiERKN3NTL2RRE
libec.so.10:_ZN16CurveHeightConst9ordinatesERKN3NTL2RRE
libec.so.10:_ZN16CurveHeightConstC1ER8CurveRed
libec.so.10:_ZN16CurveHeightConstC2ER8CurveRed
libec.so.10:_ZN17extra_prime_class13write_to_fileENSt7__cxx1112basic_stringIcSt11char_traitsIcESaIcEEEi
libec.so.10:_ZN17extra_prime_class14read_from_fileENSt7__cxx1112basic_stringIcSt11char_traitsIcESaIcEEEi
libec.so.10:_ZN17extra_prime_classD1Ev
libec.so.10:_ZN17extra_prime_classD2Ev
libec.so.10:_ZN17periods_via_lfchi7computeEv
libec.so.10:_ZN17periods_via_lfchiC1EPK5levelPK7newform
libec.so.10:_ZN17periods_via_lfchiC2EPK5levelPK7newform
libec.so.10:_ZN23point_min_height_finder6searchEN3NTL2RRE
libec.so.10:_ZN23point_min_height_finder7processERKN3NTL2ZZES3_S3_
libec.so.10:_ZN23point_min_height_finderC1EP9Curvedataii
libec.so.10:_ZN23point_min_height_finderC2EP9Curvedataii
libec.so.10:_ZN2mw12search_rangeEN3NTL2RRES1_S1_ii
libec.so.10:_ZN2mw6searchEN3NTL2RREii
libec.so.10:_ZN2mw7processERK5Pointi
libec.so.10:_ZN2mw7processERKN3NTL2ZZES3_S3_
libec.so.10:_ZN2mw7processERKN3NTL2ZZES3_S3_i
libec.so.10:_ZN2mw7processERKSt6vectorI5PointSaIS1_EEi
libec.so.10:_ZN2mw8saturateERlRSt6vectorIlSaIlEEll
libec.so.10:_ZN2mwC1EP9Curvedataiii
libec.so.10:_ZN2mwC2EP9Curvedataiii
libec.so.10:_ZN2mwD0Ev
libec.so.10:_ZN2mwD1Ev
libec.so.10:_ZN2mwD2Ev
libec.so.10:_ZN3NTL5atan2ERKNS_2RRES2_
libec.so.10:_ZN3nfd10oldheckeopEl
libec.so.10:_ZN3nfd2apEl
libec.so.10:_ZN3nfd7heckeopEl
libec.so.10:_ZN3nfdC1EP8homspaceiiii
libec.so.10:_ZN3nfdC2EP8homspaceiiii
libec.so.10:_ZN4TLSS12init_tlpolysEv
libec.so.10:_ZN4TLSS4initEiRKN3NTL3ZZXEi
libec.so.10:_ZN4TLSS4initEii
libec.so.10:_ZN5Curve5inputERSi
libec.so.10:_ZN5CurveC1ERKN3NTL2ZZES3_
libec.so.10:_ZN5CurveC2ERKN3NTL2ZZES3_
libec.so.10:_ZN5Point15division_pointsEi
libec.so.10:_ZN5PointmIERKS_
libec.so.10:_ZN5PointpLERKS_
libec.so.10:_ZN5cubic10seminegateER6unimod
libec.so.10:_ZN5cubic10sl2_reduceER6unimod
libec.so.10:_ZN5cubic11hess_reduceER6unimod
libec.so.10:_ZN5cubic12shift_reduceEv
libec.so.10:_ZN5cubic13is_jc_reducedEv
libec.so.10:_ZN5cubic14mathews_reduceER6unimod
libec.so.10:_ZN5cubic18is_hessian_reducedEv
libec.so.10:_ZN5cubic6invertER6unimod
libec.so.10:_ZN5cubic6negateER6unimod
libec.so.10:_ZN5cubic7x_shiftERKN3NTL2ZZER6unimod
libec.so.10:_ZN5cubic7y_shiftERKN3NTL2ZZER6unimod
libec.so.10:_ZN5cubic9jc_reduceER6unimod
libec.so.10:_ZN5cubic9normaliseER6unimod
libec.so.10:_ZN5cubic9transformERK6unimod
libec.so.10:_ZN5fixc610fixc4tableE
libec.so.10:_ZN5fixc610fixc6tableE
libec.so.10:_ZN5fixc6C1Ev
libec.so.10:_ZN5fixc6C2Ev
libec.so.10:_ZN5fixc6clEliRN3NTL2ZZES2_
libec.so.10:_ZN5levelC1Ell
libec.so.10:_ZN5levelC2Ell
libec.so.10:_ZN5lfchi7computeEl
libec.so.10:_ZN5lfchiC1EPK5levelPK7newform
libec.so.10:_ZN5lfchiC2EPK5levelPK7newform
libec.so.10:_ZN5mat_i14read_from_fileENSt7__cxx1112basic_stringIcSt11char_traitsIcESaIcEEE
libec.so.10:_ZN5mat_i3addElli
libec.so.10:_ZN5mat_i3setElli
libec.so.10:_ZN5mat_i4initEll
libec.so.10:_ZN5mat_i6divrowEli
libec.so.10:_ZN5mat_i6setcolElRK5vec_i
libec.so.10:_ZN5mat_i6setrowElRK5vec_i
libec.so.10:_ZN5mat_i7multrowEli
libec.so.10:_ZN5mat_i8clearrowEl
libec.so.10:_ZN5mat_i8swaprowsEll
libec.so.10:_ZN5mat_iC1ERKS_
libec.so.10:_ZN5mat_iC1Ell
libec.so.10:_ZN5mat_iC2ERKS_
libec.so.10:_ZN5mat_iC2Ell
libec.so.10:_ZN5mat_iD1Ev
libec.so.10:_ZN5mat_iD2Ev
libec.so.10:_ZN5mat_iaSERKS_
libec.so.10:_ZN5mat_idVEi
libec.so.10:_ZN5mat_imIERKS_
libec.so.10:_ZN5mat_imLEi
libec.so.10:_ZN5mat_ipLERKS_
libec.so.10:_ZN5mat_l14read_from_fileENSt7__cxx1112basic_stringIcSt11char_traitsIcESaIcEEE
libec.so.10:_ZN5mat_l3addElll
libec.so.10:_ZN5mat_l3setElll
libec.so.10:_ZN5mat_l4initEll
libec.so.10:_ZN5mat_l6divrowEll
libec.so.10:_ZN5mat_l6setcolElRK5vec_l
libec.so.10:_ZN5mat_l6setrowElRK5vec_l
libec.so.10:_ZN5mat_l7multrowEll
libec.so.10:_ZN5mat_l8clearrowEl
libec.so.10:_ZN5mat_l8swaprowsEll
libec.so.10:_ZN5mat_lC1ERKS_
libec.so.10:_ZN5mat_lC1Ell
libec.so.10:_ZN5mat_lC2ERKS_
libec.so.10:_ZN5mat_lC2Ell
libec.so.10:_ZN5mat_lD1Ev
libec.so.10:_ZN5mat_lD2Ev
libec.so.10:_ZN5mat_laSERKS_
libec.so.10:_ZN5mat_ldVEl
libec.so.10:_ZN5mat_lmIERKS_
libec.so.10:_ZN5mat_lmLEl
libec.so.10:_ZN5mat_lpLERKS_
libec.so.10:_ZN5mat_m3addEllRKN3NTL2ZZE
libec.so.10:_ZN5mat_m3setEllRKN3NTL2ZZE
libec.so.10:_ZN5mat_m4initEll
libec.so.10:_ZN5mat_m6divrowElRKN3NTL2ZZE
libec.so.10:_ZN5mat_m6setcolElRK5vec_m
libec.so.10:_ZN5mat_m6setrowElRK5vec_m
libec.so.10:_ZN5mat_m7multrowElRKN3NTL2ZZE
libec.so.10:_ZN5mat_m8clearrowEl
libec.so.10:_ZN5mat_m8swaprowsEll
libec.so.10:_ZN5mat_mC1ERK5mat_i
libec.so.10:_ZN5mat_mC1ERK5mat_l
libec.so.10:_ZN5mat_mC1ERKS_
libec.so.10:_ZN5mat_mC1Ell
libec.so.10:_ZN5mat_mC2ERK5mat_i
libec.so.10:_ZN5mat_mC2ERK5mat_l
libec.so.10:_ZN5mat_mC2ERKS_
libec.so.10:_ZN5mat_mC2Ell
libec.so.10:_ZN5mat_mD1Ev
libec.so.10:_ZN5mat_mD2Ev
libec.so.10:_ZN5mat_maSERKS_
libec.so.10:_ZN5mat_mdVERKN3NTL2ZZE
libec.so.10:_ZN5mat_mmIERKS_
libec.so.10:_ZN5mat_mmLERKN3NTL2ZZE
libec.so.10:_ZN5mat_mpLERKS_
libec.so.10:_ZN5matopC1El
libec.so.10:_ZN5matopC1Ell
libec.so.10:_ZN5matopC1Ellll
libec.so.10:_ZN5matopC2El
libec.so.10:_ZN5matopC2Ell
libec.so.10:_ZN5matopC2Ellll
libec.so.10:_ZN5rank110addquarticERKN3NTL2ZZES3_S3_S3_S3_
libec.so.10:_ZN5rank110listpointsEP9CurvedataRKN3NTL2ZZES5_S5_S5_
libec.so.10:_ZN5rank110listpointsEv
libec.so.10:_ZN5rank110sortpointsEv
libec.so.10:_ZN5rank111clear_sieveEv
libec.so.10:_ZN5rank111getquarticsEv
libec.so.10:_ZN5rank112getquartics1Ev
libec.so.10:_ZN5rank112show_eps_vecEPl
libec.so.10:_ZN5rank14qepsERK7quartici
libec.so.10:_ZN5rank17gettypeEi
libec.so.10:_ZN5rank18aux_initEv
libec.so.10:_ZN5rank19flag_initEv
libec.so.10:_ZN5rank19getpointsEv
libec.so.10:_ZN5rank1C1EP9Curvedataiilll
libec.so.10:_ZN5rank1C2EP9Curvedataiilll
libec.so.10:_ZN5rank210listpointsEP9CurvedataRKN3NTL2ZZES5_S5_S5_
libec.so.10:_ZN5rank210listpointsEv
libec.so.10:_ZN5rank210makepointsEv
libec.so.10:_ZN5rank211testquarticERKN3NTL2ZZES3_S3_i
libec.so.10:_ZN5rank212find_elsgensEiRKN3NTL2ZZES3_
libec.so.10:_ZN5rank212find_glsgensEiRKN3NTL2ZZES3_
libec.so.10:_ZN5rank213find_els2gensEiRKN3NTL2ZZES3_
libec.so.10:_ZN5rank213local_descentERKN3NTL2ZZE
libec.so.10:_ZN5rank214second_descentERKN3NTL2ZZES3_S3_i
libec.so.10:_ZN5rank28listgensEP9CurvedataRKN3NTL2ZZES5_S5_S5_
libec.so.10:_ZN5rank28listgensEv
libec.so.10:_ZN5rank28makegensEv
libec.so.10:_ZN5rank29makepointERKN3NTL2ZZES3_S3_S3_S3_S3_i
libec.so.10:_ZN5rank2C1EP9Curvedataiilli
libec.so.10:_ZN5rank2C2EP9Curvedataiilli
libec.so.10:_ZN5sieve12search_rangeEN3NTL2RRES1_S1_
libec.so.10:_ZN5sieve15a_simple_searchERKlS1_
libec.so.10:_ZN5sieve5statsEv
libec.so.10:_ZN5sieve6searchEN3NTL2RRE
libec.so.10:_ZN5sieve8a_searchERKlS1_
libec.so.10:_ZN5sieveC1EP9CurvedataP2mwii
libec.so.10:_ZN5sieveC2EP9CurvedataP2mwii
libec.so.10:_ZN5sieveD1Ev
libec.so.10:_ZN5sieveD2Ev
libec.so.10:_ZN5timer11getWallTimeEv
libec.so.10:_ZN5timer3addENSt7__cxx1112basic_stringIcSt11char_traitsIcESaIcEEE
libec.so.10:_ZN5timer4listEv
libec.so.10:_ZN5timer4showEiNSt7__cxx1112basic_stringIcSt11char_traitsIcESaIcEEEii
libec.so.10:_ZN5timer4stopENSt7__cxx1112basic_stringIcSt11char_traitsIcESaIcEEE
libec.so.10:_ZN5timer5clearENSt7__cxx1112basic_stringIcSt11char_traitsIcESaIcEEE
libec.so.10:_ZN5timer5countENSt7__cxx1112basic_stringIcSt11char_traitsIcESaIcEEE
libec.so.10:_ZN5timer5splitENSt7__cxx1112basic_stringIcSt11char_traitsIcESaIcEEE
libec.so.10:_ZN5timer5startENSt7__cxx1112basic_stringIcSt11char_traitsIcESaIcEEE
libec.so.10:_ZN5timer5totalENSt7__cxx1112basic_stringIcSt11char_traitsIcESaIcEEE
libec.so.10:_ZN5timer5writeENSt7__cxx1112basic_stringIcSt11char_traitsIcESaIcEEE
libec.so.10:_ZN5timer6streamENSt7__cxx1112basic_stringIcSt11char_traitsIcESaIcEEE
libec.so.10:_ZN5timer7averageENSt7__cxx1112basic_stringIcSt11char_traitsIcESaIcEEE
libec.so.10:_ZN5timer7showAllEi
libec.so.10:_ZN5timer7stopAllEv
libec.so.10:_ZN5timer8clearAllEv
libec.so.10:_ZN5timerC1ENSt7__cxx1112basic_stringIcSt11char_traitsIcESaIcEEE
libec.so.10:_ZN5timerC1Ev
libec.so.10:_ZN5timerC2ENSt7__cxx1112basic_stringIcSt11char_traitsIcESaIcEEE
libec.so.10:_ZN5timerC2Ev
libec.so.10:_ZN5timerD1Ev
libec.so.10:_ZN5timerD2Ev
libec.so.10:_ZN5vec_i3addEli
libec.so.10:_ZN5vec_i3setEli
libec.so.10:_ZN5vec_i4initEl
libec.so.10:_ZN5vec_i7add_rowERK5mat_ii
libec.so.10:_ZN5vec_i7addmodpERKS_i
libec.so.10:_ZN5vec_i7sub_rowERK5mat_ii
libec.so.10:_ZN5vec_i8add_modpElii
libec.so.10:_ZN5vec_iC1ERKS_
libec.so.10:_ZN5vec_iC1El
libec.so.10:_ZN5vec_iC1ElPi
libec.so.10:_ZN5vec_iC2ERKS_
libec.so.10:_ZN5vec_iC2El
libec.so.10:_ZN5vec_iC2ElPi
libec.so.10:_ZN5vec_iD1Ev
libec.so.10:_ZN5vec_iD2Ev
libec.so.10:_ZN5vec_iaSERKS_
libec.so.10:_ZN5vec_idVEi
libec.so.10:_ZN5vec_imIERKS_
libec.so.10:_ZN5vec_imLEi
libec.so.10:_ZN5vec_ipLERKS_
libec.so.10:_ZN5vec_l3addEll
libec.so.10:_ZN5vec_l3setEll
libec.so.10:_ZN5vec_l4initEl
libec.so.10:_ZN5vec_l7add_rowERK5mat_li
libec.so.10:_ZN5vec_l7addmodpERKS_l
libec.so.10:_ZN5vec_l7sub_rowERK5mat_li
libec.so.10:_ZN5vec_l8add_modpElll
libec.so.10:_ZN5vec_lC1ERKS_
libec.so.10:_ZN5vec_lC1El
libec.so.10:_ZN5vec_lC1ElPl
libec.so.10:_ZN5vec_lC2ERKS_
libec.so.10:_ZN5vec_lC2El
libec.so.10:_ZN5vec_lC2ElPl
libec.so.10:_ZN5vec_lD1Ev
libec.so.10:_ZN5vec_lD2Ev
libec.so.10:_ZN5vec_laSERKS_
libec.so.10:_ZN5vec_ldVEl
libec.so.10:_ZN5vec_lmIERKS_
libec.so.10:_ZN5vec_lmLEl
libec.so.10:_ZN5vec_lpLERKS_
libec.so.10:_ZN5vec_m3addElRKN3NTL2ZZE
libec.so.10:_ZN5vec_m3setElRKN3NTL2ZZE
libec.so.10:_ZN5vec_m4initEl
libec.so.10:_ZN5vec_m7addmodpERKS_RKN3NTL2ZZE
libec.so.10:_ZN5vec_mC1ERK5vec_i
libec.so.10:_ZN5vec_mC1ERK5vec_l
libec.so.10:_ZN5vec_mC1ERKS_
libec.so.10:_ZN5vec_mC1El
libec.so.10:_ZN5vec_mC1ElPN3NTL2ZZE
libec.so.10:_ZN5vec_mC2ERK5vec_i
libec.so.10:_ZN5vec_mC2ERK5vec_l
libec.so.10:_ZN5vec_mC2ERKS_
libec.so.10:_ZN5vec_mC2El
libec.so.10:_ZN5vec_mC2ElPN3NTL2ZZE
libec.so.10:_ZN5vec_mD1Ev
libec.so.10:_ZN5vec_mD2Ev
libec.so.10:_ZN5vec_maSERKS_
libec.so.10:_ZN5vec_mdVERKN3NTL2ZZE
libec.so.10:_ZN5vec_mmIERKS_
libec.so.10:_ZN5vec_mmLERKN3NTL2ZZE
libec.so.10:_ZN5vec_mpLERKS_
libec.so.10:_ZN6GetOpt11last_nonoptE
libec.so.10:_ZN6GetOpt12first_nonoptE
libec.so.10:_ZN6GetOpt8exchangeEPPc
libec.so.10:_ZN6GetOpt8nextcharE
libec.so.10:_ZN6GetOptC1EiPPcPKc
libec.so.10:_ZN6GetOptC2EiPPcPKc
libec.so.10:_ZN6GetOptclEv
libec.so.10:_ZN6ffmodq1EE
libec.so.10:_ZN6ffmodq2FqE
libec.so.10:_ZN6ffmodq2f1E
libec.so.10:_ZN6ffmodq2f2E
libec.so.10:_ZN6ffmodq9init_f1f2Ev
libec.so.10:_ZN6ffmodqC1ERK9curvemodq
libec.so.10:_ZN6ffmodqC2ERK9curvemodq
libec.so.10:_ZN6ldash11GEN3NTL2RRE
libec.so.10:_ZN6ldash14initEPK5levelRKSt6vectorIlSaIlEElRK8rational
libec.so.10:_ZN6ldash17computeEv
libec.so.10:_ZN6ldash1C1EPK5levelPK7newform
libec.so.10:_ZN6ldash1C1EPK8newformsl
libec.so.10:_ZN6ldash1C2EPK5levelPK7newform
libec.so.10:_ZN6ldash1C2EPK8newformsl
libec.so.10:_ZN6modsymC1ERK4symb
libec.so.10:_ZN6modsymC2ERK4symb
libec.so.10:_ZN6qsieve10ratio1_defE
libec.so.10:_ZN6qsieve11check_pointEmllPli
libec.so.10:_ZN6qsieve13set_intervalsESt6vectorIdSaIdEEiii
libec.so.10:_ZN6qsieve14dealloc_sievesEv
libec.so.10:_ZN6qsieve17set_sieve_primes1El
libec.so.10:_ZN6qsieve17set_sieve_primes2El
libec.so.10:_ZN6qsieve4siftEl
libec.so.10:_ZN6qsieve4techE
libec.so.10:_ZN6qsieve5primeE
libec.so.10:_ZN6qsieve5sift0Ellli
libec.so.10:_ZN6qsieve6init_fEv
libec.so.10:_ZN6qsieve6ratio1E
libec.so.10:_ZN6qsieve6ratio2E
libec.so.10:_ZN6qsieve6searchEd
libec.so.10:_ZN6qsieve6searchEv
libec.so.10:_ZN6qsieve7ratios2E
libec.so.10:_ZN6qsieve8init_allEv
libec.so.10:_ZN6qsieve9init_dataEv
libec.so.10:_ZN6qsieveC1EP15point_processoriSt6vectorIN3NTL2ZZESaIS4_EENS3_2RREi
libec.so.10:_ZN6qsieveC1EP15point_processoriSt6vectorIN3NTL2ZZESaIS4_EEi
libec.so.10:_ZN6qsieveC2EP15point_processoriSt6vectorIN3NTL2ZZESaIS4_EENS3_2RREi
libec.so.10:_ZN6qsieveC2EP15point_processoriSt6vectorIN3NTL2ZZESaIS4_EEi
libec.so.10:_ZN6qsieveD1Ev
libec.so.10:_ZN6qsieveD2Ev
libec.so.10:_ZN6sifter3epsERKN3NTL2ZZES3_
libec.so.10:_ZN6sifter4codeERKN3NTL2ZZES3_i
libec.so.10:_ZN6sifter6vecoutEPi
libec.so.10:_ZN6sifter7processERK5Point
libec.so.10:_ZN6sifter7processERKSt6vectorI5PointSaIS1_EE
libec.so.10:_ZN6sifterC1EP9Curvedataii
libec.so.10:_ZN6sifterC2EP9Curvedataii
libec.so.10:_ZN6sifterD1Ev
libec.so.10:_ZN6sifterD2Ev
libec.so.10:_ZN6smat_i12reduce_mod_pERKi
libec.so.10:_ZN6smat_i20mult_by_scalar_mod_pEiRKi
libec.so.10:_ZN6smat_i4rankEi
libec.so.10:_ZN6smat_i6setrowEiRK5vec_i
libec.so.10:_ZN6smat_i6setrowEiRK6svec_i
libec.so.10:_ZN6smat_i7nullityERKii
libec.so.10:_ZN6smat_i7set_rowEiiPiS0_
libec.so.10:_ZN6smat_i9sub_mod_pERKiS1_
libec.so.10:_ZN6smat_iC1ERK5mat_i
libec.so.10:_ZN6smat_iC1ERKS_
libec.so.10:_ZN6smat_iC1Eii
libec.so.10:_ZN6smat_iC2ERK5mat_i
libec.so.10:_ZN6smat_iC2ERKS_
libec.so.10:_ZN6smat_iC2Eii
libec.so.10:_ZN6smat_iD1Ev
libec.so.10:_ZN6smat_iD2Ev
libec.so.10:_ZN6smat_iaSERKS_
libec.so.10:_ZN6smat_idVEi
libec.so.10:_ZN6smat_imIERKS_
libec.so.10:_ZN6smat_imLEi
libec.so.10:_ZN6smat_imlERK5mat_i
libec.so.10:_ZN6smat_ipLERKS_
libec.so.10:_ZN6smat_ipLERKi
libec.so.10:_ZN6smat_l12reduce_mod_pERKl
libec.so.10:_ZN6smat_l20mult_by_scalar_mod_pElRKl
libec.so.10:_ZN6smat_l4rankEl
libec.so.10:_ZN6smat_l6setrowEiRK5vec_l
libec.so.10:_ZN6smat_l6setrowEiRK6svec_l
libec.so.10:_ZN6smat_l7nullityERKll
libec.so.10:_ZN6smat_l7set_rowEiiPiPl
libec.so.10:_ZN6smat_l9sub_mod_pERKlS1_
libec.so.10:_ZN6smat_lC1ERK5mat_l
libec.so.10:_ZN6smat_lC1ERKS_
libec.so.10:_ZN6smat_lC1Eii
libec.so.10:_ZN6smat_lC2ERK5mat_l
libec.so.10:_ZN6smat_lC2ERKS_
libec.so.10:_ZN6smat_lC2Eii
libec.so.10:_ZN6smat_lD1Ev
libec.so.10:_ZN6smat_lD2Ev
libec.so.10:_ZN6smat_laSERKS_
libec.so.10:_ZN6smat_ldVEl
libec.so.10:_ZN6smat_lmIERKS_
libec.so.10:_ZN6smat_lmLEl
libec.so.10:_ZN6smat_lmlERK5mat_l
libec.so.10:_ZN6smat_lpLERKS_
libec.so.10:_ZN6smat_lpLERKl
libec.so.10:_ZN6sqfdiv6usedivERKN3NTL2ZZE
libec.so.10:_ZN6sqfdiv7displayEv
libec.so.10:_ZN6sqfdivC1ERKN3NTL2ZZEiPSt6vectorIS1_SaIS1_EE
libec.so.10:_ZN6sqfdivC2ERKN3NTL2ZZEiPSt6vectorIS1_SaIS1_EE
libec.so.10:_ZN6summer10initaplistEPK5levelRKSt6vectorIlSaIlEE
libec.so.10:_ZN6summer3addEllll
libec.so.10:_ZN6summer4use1Ell
libec.so.10:_ZN6summer4use2Ell
libec.so.10:_ZN6summer5sumitEv
libec.so.10:_ZN6summer7add2357Ellll
libec.so.10:_ZN6summer7use2357Ell
libec.so.10:_ZN6svec_i12reduce_mod_pERKi
libec.so.10:_ZN6svec_i16add_scalar_timesERKS_i
libec.so.10:_ZN6svec_i20mult_by_scalar_mod_pEiRKi
libec.so.10:_ZN6svec_i22add_scalar_times_mod_pERKS_iRKi
libec.so.10:_ZN6svec_i22add_scalar_times_mod_pERKS_iRSt3setIiSt4lessIiESaIiEES7_RKi
libec.so.10:_ZN6svec_i3addEii
libec.so.10:_ZN6svec_i3setEii
libec.so.10:_ZN6svec_i3subEii
libec.so.10:_ZN6svec_i5eraseEi
libec.so.10:_ZN6svec_i9add_mod_pERKS_RKi
libec.so.10:_ZN6svec_i9add_mod_pEiiRKi
libec.so.10:_ZN6svec_i9sub_mod_pERKS_RKi
libec.so.10:_ZN6svec_i9sub_mod_pEiiRKi
libec.so.10:_ZN6svec_iC1ERK5vec_i
libec.so.10:_ZN6svec_iC1EiPi
libec.so.10:_ZN6svec_iC2ERK5vec_i
libec.so.10:_ZN6svec_iC2EiPi
libec.so.10:_ZN6svec_idVEi
libec.so.10:_ZN6svec_imIERKS_
libec.so.10:_ZN6svec_imLEi
libec.so.10:_ZN6svec_ipLERKS_
libec.so.10:_ZN6svec_l12reduce_mod_pERKl
libec.so.10:_ZN6svec_l16add_scalar_timesERKS_l
libec.so.10:_ZN6svec_l20mult_by_scalar_mod_pElRKl
libec.so.10:_ZN6svec_l22add_scalar_times_mod_pERKS_lRKl
libec.so.10:_ZN6svec_l22add_scalar_times_mod_pERKS_lRSt3setIiSt4lessIiESaIiEES7_RKl
libec.so.10:_ZN6svec_l3addEil
libec.so.10:_ZN6svec_l3setEil
libec.so.10:_ZN6svec_l3subEil
libec.so.10:_ZN6svec_l5eraseEi
libec.so.10:_ZN6svec_l9add_mod_pERKS_RKl
libec.so.10:_ZN6svec_l9add_mod_pEilRKl
libec.so.10:_ZN6svec_l9sub_mod_pERKS_RKl
libec.so.10:_ZN6svec_l9sub_mod_pEilRKl
libec.so.10:_ZN6svec_lC1ERK5vec_l
libec.so.10:_ZN6svec_lC1EiPl
libec.so.10:_ZN6svec_lC2ERK5vec_l
libec.so.10:_ZN6svec_lC2EiPl
libec.so.10:_ZN6svec_ldVEl
libec.so.10:_ZN6svec_lmIERKS_
libec.so.10:_ZN6svec_lmLEl
libec.so.10:_ZN6svec_lpLERKS_
libec.so.10:_ZN7P2Point6reduceEv
libec.so.10:_ZN7ff_data10eraseChildEi
libec.so.10:_ZN7ff_data10eraseChildEl
libec.so.10:_ZN7ff_data10storeBplusE5vec_i
libec.so.10:_ZN7ff_data11childStatusEl11childstatus
libec.so.10:_ZN7ff_data11setChildrenESt6vectorIlSaIlEE
libec.so.10:_ZN7ff_data11storeBminusE5vec_i
libec.so.10:_ZN7ff_data13decreaseDepthEl
libec.so.10:_ZN7ff_data13eraseChildrenEv
libec.so.10:_ZN7ff_data13increaseDepthEl
libec.so.10:_ZN7ff_data13setEigenvalueEl
libec.so.10:_ZN7ff_data19increaseSubmatUsageEv
libec.so.10:_ZN7ff_data19numCompleteChildrenEv
libec.so.10:_ZN7ff_data3eigEv
libec.so.10:_ZN7ff_data3mapEl
libec.so.10:_ZN7ff_data5childEl
libec.so.10:_ZN7ff_data5depthEv
libec.so.10:_ZN7ff_data6statusEv
libec.so.10:_ZN7ff_data6subdimEv
libec.so.10:_ZN7ff_data7eiglistEv
libec.so.10:_ZN7ff_data8addChildElRS_
libec.so.10:_ZN7ff_data8completeEv
libec.so.10:_ZN7ff_data9abs_spaceEv
libec.so.10:_ZN7ff_data9rel_spaceEv
libec.so.10:_ZN7ff_data9setParentEPS_
libec.so.10:_ZN7ff_data9setStatusE10nodestatus
libec.so.10:_ZN7ff_dataC1EP12form_finder2
libec.so.10:_ZN7ff_dataC2EP12form_finder2
libec.so.10:_ZN7ff_dataD1Ev
libec.so.10:_ZN7ff_dataD2Ev
libec.so.10:_ZN7ff_dataclEv
libec.so.10:_ZN7moddataC1El
libec.so.10:_ZN7moddataC2El
libec.so.10:_ZN7newform10fixup_eigsEv
libec.so.10:_ZN7newform10refix_eigsEv
libec.so.10:_ZN7newform10unfix_eigsEv
libec.so.10:_ZN7newform11add_more_apEi
libec.so.10:_ZN7newform11find_degphiEv
libec.so.10:_ZN7newform11find_matrixEv
libec.so.10:_ZN7newform12compute_rankEv
libec.so.10:_ZN7newform13special_valueEv
libec.so.10:_ZN7newform14find_bsd_ratioEv
libec.so.10:_ZN7newform14sign_normalizeEv
libec.so.10:_ZN7newform20find_twisting_primesEv
libec.so.10:_ZN7newform21check_expand_contractEv
libec.so.10:_ZN7newform21find_cuspidal_factorsEv
libec.so.10:_ZN7newform22find_coords_plus_minusEv
libec.so.10:_ZN7newform23find_optimality_factorsERK8CurveRedi
libec.so.10:_ZN7newform4rankEv
libec.so.10:_ZN7newformC1ERK5vec_iS2_RKSt6vectorIlSaIlEEP8newformsl
libec.so.10:_ZN7newformC1ERKSt6vectorIiSaIiEERKS0_IlSaIlEES8_P8newforms
libec.so.10:_ZN7newformC2ERK5vec_iS2_RKSt6vectorIlSaIlEEP8newformsl
libec.so.10:_ZN7newformC2ERKSt6vectorIiSaIiEERKS0_IlSaIlEES8_P8newforms
libec.so.10:_ZN7quartic14set_equiv_codeERKSt6vectorIlSaIlEE
libec.so.10:_ZN7quartic18set_roots_and_typeEv
libec.so.10:_ZN7quartic6assignERKN3NTL2ZZES3_S3_S3_S3_
libec.so.10:_ZN7quartic6assignERKN3NTL2ZZES3_S3_S3_S3_P10bigcomplexiS3_S3_S3_
libec.so.10:_ZN7quartic9make_zpolEv
libec.so.10:_ZN7quarticC1ERKN3NTL2ZZES3_S3_S3_S3_
libec.so.10:_ZN7quarticC1ERKN3NTL2ZZES3_S3_S3_S3_P10bigcomplexiS3_S3_S3_
libec.so.10:_ZN7quarticC1ERKS_
libec.so.10:_ZN7quarticC1Ev
libec.so.10:_ZN7quarticC2ERKN3NTL2ZZES3_S3_S3_S3_
libec.so.10:_ZN7quarticC2ERKN3NTL2ZZES3_S3_S3_S3_P10bigcomplexiS3_S3_S3_
libec.so.10:_ZN7quarticC2ERKS_
libec.so.10:_ZN7quarticC2Ev
libec.so.10:_ZN7quarticD1Ev
libec.so.10:_ZN7quarticD2Ev
libec.so.10:_ZN7quarticaSERKS_
libec.so.10:_ZN8Cperiods10store_sumsEv
libec.so.10:_ZN8Cperiods11ellztopointERK10bigcomplexS2_S2_S2_
libec.so.10:_ZN8Cperiods7X_coordERK10bigcomplex
libec.so.10:_ZN8Cperiods7Y_coordERK10bigcomplex
libec.so.10:_ZN8Cperiods9XY_coordsER10bigcomplexS1_RKS0_
libec.so.10:_ZN8CperiodsC1ERK9Curvedata
libec.so.10:_ZN8CperiodsC2ERK9Curvedata
libec.so.10:_ZN8CurveRed18setLocalRootNumberERKN3NTL2ZZE
libec.so.10:_ZN8CurveRed19setLocalRootNumber2Ev
libec.so.10:_ZN8CurveRed19setLocalRootNumber3Ev
libec.so.10:_ZN8CurveRed29setLocalRootNumber_not_2_or_3ERKN3NTL2ZZE
libec.so.10:_ZN8CurveRed5neronEli
libec.so.10:_ZN8CurveRed7displayERSo
libec.so.10:_ZN8CurveRedC1ERK9Curvedata
libec.so.10:_ZN8CurveRedC1ERKS_
libec.so.10:_ZN8CurveRedC2ERK9Curvedata
libec.so.10:_ZN8CurveRedC2ERKS_
libec.so.10:_ZN8CurveRedD1Ev
libec.so.10:_ZN8CurveRedD2Ev
libec.so.10:_ZN8CurveRedaSERKS_
libec.so.10:_ZN8Interval9intersectERKS_
libec.so.10:_ZN8bitspace7augmentEml
libec.so.10:_ZN8bitspaceC1El
libec.so.10:_ZN8bitspaceC2El
libec.so.10:_ZN8bitspaceD1Ev
libec.so.10:_ZN8bitspaceD2Ev
libec.so.10:_ZN8cusplist5indexERK8rational
libec.so.10:_ZN8cusplist7index_1ERK8rational
libec.so.10:_ZN8cusplist7index_2ERK8rational
libec.so.10:_ZN8eclogger5levelEv
libec.so.10:_ZN8eclogger6level_E
libec.so.10:_ZN8eclogger6streamB5cxx11EPKcm
libec.so.10:_ZN8eclogger6streamB5cxx11Ev
libec.so.10:_ZN8eclogger8setLevelEi
libec.so.10:_ZN8ecloggerC1Ev
libec.so.10:_ZN8ecloggerC2Ev
libec.so.10:_ZN8ecloggerD1Ev
libec.so.10:_ZN8ecloggerD2Ev
libec.so.10:_ZN8homspace10opmat_colsEiRK5vec_ii
libec.so.10:_ZN8homspace11s_opmat_colEiii
libec.so.10:_ZN8homspace12s_opmat_colsEiRK5vec_ii
libec.so.10:_ZN8homspace13extend_coordsERK5vec_i
libec.so.10:_ZN8homspace15contract_coordsERK5vec_i
libec.so.10:_ZN8homspace16opmat_restrictedEiRK10subspace_iii
libec.so.10:_ZN8homspace18s_opmat_restrictedEiRK11ssubspace_iii
libec.so.10:_ZN8homspace5opmatEiii
libec.so.10:_ZN8homspace7s_opmatEiii
libec.so.10:_ZN8homspace8eigrangeEl
libec.so.10:_ZN8homspace8op_primeEi
libec.so.10:_ZN8homspace9opmat_colEiii
libec.so.10:_ZN8homspaceC1Eliii
libec.so.10:_ZN8homspaceC2Eliii
libec.so.10:_ZN8homspaceD1Ev
libec.so.10:_ZN8homspaceD2Ev
libec.so.10:_ZN8newforms10dimoldpartESt6vectorIlSaIlEE
libec.so.10:_ZN8newforms10find_jlistEv
libec.so.10:_ZN8newforms10getperiodsElii
libec.so.10:_ZN8newforms10refix_eigsEv
libec.so.10:_ZN8newforms10showcurvesESt6vectorIiSaIiEEiNSt7__cxx1112basic_stringIcSt11char_traitsIcESaIcEEE
libec.so.10:_ZN8newforms10unfix_eigsEv
libec.so.10:_ZN8newforms11find_lminusEllRKN3NTL2RRE
libec.so.10:_ZN8newforms11find_matrixEllRiRN3NTL2RRES3_
libec.so.10:_ZN8newforms14createfromdataEilii
libec.so.10:_ZN8newforms14make_projcoordEv
libec.so.10:_ZN8newforms15createfromcurveEiRK8CurveRedi
libec.so.10:_ZN8newforms16createfromcurvesEiSt6vectorI8CurveRedSaIS1_EEi
libec.so.10:_ZN8newforms17createfromolddataEv
libec.so.10:_ZN8newforms17createfromscratchEil
libec.so.10:_ZN8newforms21createfromcurves_miniESt6vectorI8CurveRedSaIS1_EEi
libec.so.10:_ZN8newforms3useERK5vec_iS2_St6vectorIlSaIlEE
libec.so.10:_ZN8newforms4sortEi
libec.so.10:_ZN8newforms5addapEl
libec.so.10:_ZN8newforms5apvecEl
libec.so.10:_ZN8newforms5mergeEi
libec.so.10:_ZN8newforms6makeh1Ei
libec.so.10:_ZN8newforms8getcurveEliRN3NTL2RREi
libec.so.10:_ZN8newforms9makebasesEii
libec.so.10:_ZN8newformsD0Ev
libec.so.10:_ZN8newformsD1Ev
libec.so.10:_ZN8newformsD2Ev
libec.so.10:_ZN8oldforms13getoldclassesEli
libec.so.10:_ZN8oldformsC1ElPK5levelii
libec.so.10:_ZN8oldformsC2ElPK5levelii
libec.so.10:_ZN8symbdataC1El
libec.so.10:_ZN8symbdataC2El
libec.so.10:_ZN8symblist3addERK4symbl
libec.so.10:_ZN8symblistC1El
libec.so.10:_ZN8symblistC2El
libec.so.10:_ZN8symblistD1Ev
libec.so.10:_ZN8symblistD2Ev
libec.so.10:_ZN9Curvedata10minimalizeEv
libec.so.10:_ZN9Curvedata12get_ntorsionEv
libec.so.10:_ZN9Curvedata5inputERSi
libec.so.10:_ZN9Curvedata9transformERKN3NTL2ZZES3_S3_
libec.so.10:_ZN9CurvedataC1ERK5Curvei
libec.so.10:_ZN9CurvedataC1ERKN3NTL2ZZES3_S3_S3_S3_i
libec.so.10:_ZN9CurvedataC1ERKN3NTL2ZZES3_i
libec.so.10:_ZN9CurvedataC1ERKS_
libec.so.10:_ZN9CurvedataC1ERKS_i
libec.so.10:_ZN9CurvedataC1ERKSt6vectorI11bigrationalSaIS1_EERN3NTL2ZZE
libec.so.10:_ZN9CurvedataC2ERK5Curvei
libec.so.10:_ZN9CurvedataC2ERKN3NTL2ZZES3_S3_S3_S3_i
libec.so.10:_ZN9CurvedataC2ERKN3NTL2ZZES3_i
libec.so.10:_ZN9CurvedataC2ERKS_
libec.so.10:_ZN9CurvedataC2ERKS_i
libec.so.10:_ZN9CurvedataC2ERKSt6vectorI11bigrationalSaIS1_EERN3NTL2ZZE
libec.so.10:_ZN9CurvedataaSERKS_
libec.so.10:_ZN9character4initEv
libec.so.10:_ZN9character5resetEl
libec.so.10:_ZN9characterC1El
libec.so.10:_ZN9characterC2El
libec.so.10:_ZN9characterD1Ev
libec.so.10:_ZN9characterD2Ev
libec.so.10:_ZN9curvemodq12random_pointEv
libec.so.10:_ZN9curvemodq15set_group_orderEv
libec.so.10:_ZN9curvemodq28set_group_order_via_legendreEv
libec.so.10:_ZN9curvemodqC1ERK5CurveRKN3NTL2ZZE
libec.so.10:_ZN9curvemodqC1ERKS_
libec.so.10:_ZN9curvemodqC1Ev
libec.so.10:_ZN9curvemodqC2ERK5CurveRKN3NTL2ZZE
libec.so.10:_ZN9curvemodqC2ERKS_
libec.so.10:_ZN9curvemodqC2Ev
libec.so.10:_ZN9curvemodqD1Ev
libec.so.10:_ZN9curvemodqD2Ev
libec.so.10:_ZN9curvemodqaSERKS_
libec.so.10:_ZN9pointmodq16set_x_coordinateERKN3NTL4ZZ_pE
libec.so.10:_ZN9pointmodq9get_orderERKN3NTL2ZZE
libec.so.10:_ZN9pointmodq9get_orderERKN3NTL2ZZES3_
libec.so.10:_ZN9pointmodq9get_orderEv
libec.so.10:_ZN9pointmodqC1ERKN3NTL4ZZ_pERK9curvemodq
libec.so.10:_ZN9pointmodqC2ERKN3NTL4ZZ_pERK9curvemodq
libec.so.10:_ZN9quadratic4initEv
libec.so.10:_ZN9quadratic5coeffEi
libec.so.10:_ZN9quadratic6invertER6unimod
libec.so.10:_ZN9quadratic6reduceER6unimod
libec.so.10:_ZN9quadratic7x_shiftERKN3NTL2ZZER6unimod
libec.so.10:_ZN9quadratic7y_shiftERKN3NTL2ZZER6unimod
libec.so.10:_ZN9quadratic9transformERK6unimod
libec.so.10:_ZN9quadraticD1Ev
libec.so.10:_ZN9quadraticD2Ev
libec.so.10:_ZN9saturator12reset_pointsERKSt6vectorI5PointSaIS1_EE
libec.so.10:_ZN9saturator12show_q_tallyEv
libec.so.10:_ZN9saturator13do_saturationESt6vectorIiSaIiEERlRS2_i
libec.so.10:_ZN9saturator13do_saturationESt6vectorIlSaIlEERlRS2_i
libec.so.10:_ZN9saturator13do_saturationEii
libec.so.10:_ZN9saturator13kernel_vectorEv
libec.so.10:_ZN9saturator15get_index_boundEv
libec.so.10:_ZN9saturator15set_index_boundEv
libec.so.10:_ZN9saturator15test_saturationEii
libec.so.10:_ZN9saturator19trivially_saturatedEl
libec.so.10:_ZN9saturator21test_saturation_extraEii
libec.so.10:_ZN9saturator5nextqEv
libec.so.10:_ZN9saturator7enlargeEv
libec.so.10:_ZN9saturator8saturateERSt6vectorIlSaIlEERllli
libec.so.10:_ZNK11two_descent11report_rankEv
libec.so.10:_ZNK12IsogenyClass10displaymatERSo
libec.so.10:_ZNK12IsogenyClass13displaycurvesERSo
libec.so.10:_ZNK12IsogenyClass6getmatEv
libec.so.10:_ZNK12IsogenyClass9getmatrixEv
libec.so.10:_ZNK15ComponentGroups14ComponentGroupERKN3NTL2ZZE
libec.so.10:_ZNK15ComponentGroups15InSameComponentERK5PointS2_RKN3NTL2ZZE
libec.so.10:_ZNK15ComponentGroups21ImageInComponentGroupERK5PointRKN3NTL2ZZESt6vectorIiSaIiEE
libec.so.10:_ZNK15ComponentGroups24ImageInComponentGroup_ImERK5PointRKN3NTL2ZZEi
libec.so.10:_ZNK15ComponentGroups27ImageInComponentGroup_Im_pmERK5PointRKN3NTL2ZZEi
libec.so.10:_ZNK4TLSS10map_pointsERKSt6vectorI5PointSaIS1_EE
libec.so.10:_ZNK4TLSS9map1pointERK5Point
libec.so.10:_ZNK4symb9normalizeEv
libec.so.10:_ZNK5Curve9tex_printERSo
libec.so.10:_ZNK5Point18has_good_reductionERKN3NTL2ZZE
libec.so.10:_ZNK5Point18has_good_reductionERKSt6vectorIN3NTL2ZZESaIS2_EERS2_i
libec.so.10:_ZNK5Point18has_good_reductionEl
libec.so.10:_ZNK5Point29is_on_real_identity_componentEv
libec.so.10:_ZNK5Point5twiceEv
libec.so.10:_ZNK5Point7isvalidEv
libec.so.10:_ZNK5PointmiERKS_
libec.so.10:_ZNK5PointngEv
libec.so.10:_ZNK5PointplERKS_
libec.so.10:_ZNK5cubic13has_roots_modERKN3NTL2ZZE
libec.so.10:_ZNK5cubic14gl2_equivalentERKS_
libec.so.10:_ZNK5cubic14rational_rootsEv
libec.so.10:_ZNK5cubic14sl2_equivalentERKS_
libec.so.10:_ZNK5cubic22gl2_equivalent_in_listERKSt6vectorIS_SaIS_EE
libec.so.10:_ZNK5cubic22sl2_equivalent_in_listERKSt6vectorIS_SaIS_EE
libec.so.10:_ZNK5cubic4j_c1Ev
libec.so.10:_ZNK5cubic4j_c2Ev
libec.so.10:_ZNK5cubic4j_c3Ev
libec.so.10:_ZNK5cubic4j_c4Ev
libec.so.10:_ZNK5cubic9hess_rootEv
libec.so.10:_ZNK5cubic9real_rootEv
libec.so.10:_ZNK5cubic9roots_modERKN3NTL2ZZE
libec.so.10:_ZNK5mat_i11determinantEv
libec.so.10:_ZNK5mat_i11output_pariERSo
libec.so.10:_ZNK5mat_i12dump_to_fileENSt7__cxx1112basic_stringIcSt11char_traitsIcESaIcEEE
libec.so.10:_ZNK5mat_i13output_prettyERSo
libec.so.10:_ZNK5mat_i3colEl
libec.so.10:_ZNK5mat_i3rowEl
libec.so.10:_ZNK5mat_i3subEll
libec.so.10:_ZNK5mat_i4rankEv
libec.so.10:_ZNK5mat_i5sliceEllll
libec.so.10:_ZNK5mat_i5traceEv
libec.so.10:_ZNK5mat_i6outputERSo
libec.so.10:_ZNK5mat_i7nullityEv
libec.so.10:_ZNK5mat_i8charpolyEv
libec.so.10:_ZNK5mat_iclEll
libec.so.10:_ZNK5mat_l11determinantEv
libec.so.10:_ZNK5mat_l11output_pariERSo
libec.so.10:_ZNK5mat_l12dump_to_fileENSt7__cxx1112basic_stringIcSt11char_traitsIcESaIcEEE
libec.so.10:_ZNK5mat_l13output_prettyERSo
libec.so.10:_ZNK5mat_l3colEl
libec.so.10:_ZNK5mat_l3rowEl
libec.so.10:_ZNK5mat_l3subEll
libec.so.10:_ZNK5mat_l4rankEv
libec.so.10:_ZNK5mat_l5sliceEllll
libec.so.10:_ZNK5mat_l5traceEv
libec.so.10:_ZNK5mat_l6outputERSo
libec.so.10:_ZNK5mat_l7nullityEv
libec.so.10:_ZNK5mat_l8charpolyEv
libec.so.10:_ZNK5mat_lclEll
libec.so.10:_ZNK5mat_m11determinantEv
libec.so.10:_ZNK5mat_m3colEl
libec.so.10:_ZNK5mat_m3rowEl
libec.so.10:_ZNK5mat_m3subEll
libec.so.10:_ZNK5mat_m4rankEv
libec.so.10:_ZNK5mat_m5sliceEllll
libec.so.10:_ZNK5mat_m5traceEv
libec.so.10:_ZNK5mat_m7nullityEv
libec.so.10:_ZNK5mat_m7shortenEi
libec.so.10:_ZNK5mat_m7shortenEl
libec.so.10:_ZNK5mat_m8charpolyEv
libec.so.10:_ZNK5mat_mclEll
libec.so.10:_ZNK5rank17getgensEv
libec.so.10:_ZNK5vec_i3subEl
libec.so.10:_ZNK5vec_i5sliceEll
libec.so.10:_ZNK5vec_iixERKS_
libec.so.10:_ZNK5vec_iixEl
libec.so.10:_ZNK5vec_l3subEl
libec.so.10:_ZNK5vec_l5sliceEll
libec.so.10:_ZNK5vec_lixERKS_
libec.so.10:_ZNK5vec_lixEl
libec.so.10:_ZNK5vec_m3subEl
libec.so.10:_ZNK5vec_m5sliceEll
libec.so.10:_ZNK5vec_m7shortenEi
libec.so.10:_ZNK5vec_m7shortenEl
libec.so.10:_ZNK5vec_mixERK5vec_i
libec.so.10:_ZNK5vec_mixERK5vec_l
libec.so.10:_ZNK5vec_mixEl
libec.so.10:_ZNK6ffmodq6outputERSo
libec.so.10:_ZNK6ffmodq8evaluateERK9pointmodq
libec.so.10:_ZNK6ffmodqdvERKN3NTL5ZZ_pXE
libec.so.10:_ZNK6ffmodqdvERKS_
libec.so.10:_ZNK6ffmodqeqERKS_
libec.so.10:_ZNK6ffmodqmiERKS_
libec.so.10:_ZNK6ffmodqmlERKN3NTL5ZZ_pXE
libec.so.10:_ZNK6ffmodqmlERKS_
libec.so.10:_ZNK6ffmodqplERKS_
libec.so.10:_ZNK6smat_i11select_rowsERK5vec_i
libec.so.10:_ZNK6smat_i3rowEi
libec.so.10:_ZNK6smat_i4elemEii
libec.so.10:_ZNK6smat_i6as_matEv
libec.so.10:_ZNK6smat_l11select_rowsERK5vec_l
libec.so.10:_ZNK6smat_l3rowEi
libec.so.10:_ZNK6smat_l4elemEii
libec.so.10:_ZNK6smat_l6as_matEv
libec.so.10:_ZNK6sqfdiv7getdivsEv
libec.so.10:_ZNK6sqfdiv7getsuppEi
libec.so.10:_ZNK6svec_i4elemEi
libec.so.10:_ZNK6svec_i6as_vecEv
libec.so.10:_ZNK6svec_i7supportEv
libec.so.10:_ZNK6svec_l4elemEi
libec.so.10:_ZNK6svec_l6as_vecEv
libec.so.10:_ZNK6svec_l7supportEv
libec.so.10:_ZNK7P2Point18getrealcoordinatesERN3NTL2RRES2_
libec.so.10:_ZNK7moddata7displayEv
libec.so.10:_ZNK7newform7displayEv
libec.so.10:_ZNK7quartic14rational_rootsEv
libec.so.10:_ZNK7quartic7trivialEv
libec.so.10:_ZNK7quartic9nrootsmodEl
libec.so.10:_ZNK8CurveRed6outputERSo
libec.so.10:_ZNK8bitspace6reduceERml
libec.so.10:_ZNK8cusplist6cuspeqERK8rationalS2_i
libec.so.10:_ZNK8homspace10add_coordsER6svec_iRK4symb
libec.so.10:_ZNK8homspace10add_coordsER6svec_iRK6modsym
libec.so.10:_ZNK8homspace10add_coordsER6svec_ill
libec.so.10:_ZNK8homspace10calcop_colENSt7__cxx1112basic_stringIcSt11char_traitsIcESaIcEEEliRK5matopi
libec.so.10:_ZNK8homspace10manintwistEl
libec.so.10:_ZNK8homspace10newheckeopElii
libec.so.10:_ZNK8homspace10s_conj_colEii
libec.so.10:_ZNK8homspace11calcop_colsENSt7__cxx1112basic_stringIcSt11char_traitsIcESaIcEEElRK5vec_iRK5matopi
libec.so.10:_ZNK8homspace11heckeop_colElii
libec.so.10:_ZNK8homspace11maninvectorEl
libec.so.10:_ZNK8homspace11proj_coordsEllRK5mat_i
libec.so.10:_ZNK8homspace11s_conj_colsERK5vec_ii
libec.so.10:_ZNK8homspace12heckeop_colsElRK5vec_ii
libec.so.10:_ZNK8homspace12s_calcop_colENSt7__cxx1112basic_stringIcSt11char_traitsIcESaIcEEEliRK5matopi
libec.so.10:_ZNK8homspace13add_coords_cdER6svec_ill
libec.so.10:_ZNK8homspace13nfproj_coordsEllRK5vec_i
libec.so.10:_ZNK8homspace13s_calcop_colsENSt7__cxx1112basic_stringIcSt11char_traitsIcESaIcEEElRK5vec_iRK5matopi
libec.so.10:_ZNK8homspace13s_heckeop_colElii
libec.so.10:_ZNK8homspace14proj_coords_cdEllRK5mat_i
libec.so.10:_ZNK8homspace14s_heckeop_colsElRK5vec_ii
libec.so.10:_ZNK8homspace15add_proj_coordsER5vec_illRK5mat_i
libec.so.10:_ZNK8homspace15conj_restrictedERK10subspace_iii
libec.so.10:_ZNK8homspace16nfproj_coords_cdEllRK5vec_i
libec.so.10:_ZNK8homspace17add_nfproj_coordsERlllRK5vec_i
libec.so.10:_ZNK8homspace17calcop_restrictedENSt7__cxx1112basic_stringIcSt11char_traitsIcESaIcEEElRK5matopRK10subspace_iii
libec.so.10:_ZNK8homspace17coords_from_indexEi
libec.so.10:_ZNK8homspace17s_conj_restrictedERK11ssubspace_iii
libec.so.10:_ZNK8homspace18add_proj_coords_cdER5vec_illRK5mat_i
libec.so.10:_ZNK8homspace18heckeop_restrictedElRK10subspace_iii
libec.so.10:_ZNK8homspace19s_calcop_restrictedENSt7__cxx1112basic_stringIcSt11char_traitsIcESaIcEEElRK5matopRK11ssubspace_iii
libec.so.10:_ZNK8homspace20add_nfproj_coords_cdERlllRK5vec_i
libec.so.10:_ZNK8homspace20s_heckeop_restrictedElRK11ssubspace_iii
libec.so.10:_ZNK8homspace22proj_coords_from_indexEiRK5mat_i
libec.so.10:_ZNK8homspace24nfproj_coords_from_indexEiRK5vec_i
libec.so.10:_ZNK8homspace3wopElii
libec.so.10:_ZNK8homspace4conjEii
libec.so.10:_ZNK8homspace5s_wopElii
libec.so.10:_ZNK8homspace6calcopENSt7__cxx1112basic_stringIcSt11char_traitsIcESaIcEEElRK5matopii
libec.so.10:_ZNK8homspace6coordsERK4symb
libec.so.10:_ZNK8homspace6coordsERK6modsym
libec.so.10:_ZNK8homspace6coordsEll
libec.so.10:_ZNK8homspace6frickeEii
libec.so.10:_ZNK8homspace6s_conjEii
libec.so.10:_ZNK8homspace7applyopERK5matopRK6modsym
libec.so.10:_ZNK8homspace7applyopERK5matopRK8rational
libec.so.10:_ZNK8homspace7heckeopElii
libec.so.10:_ZNK8homspace8conj_colEii
libec.so.10:_ZNK8homspace8s_calcopENSt7__cxx1112basic_stringIcSt11char_traitsIcESaIcEEElRK5matopii
libec.so.10:_ZNK8homspace9conj_colsERK5vec_ii
libec.so.10:_ZNK8homspace9coords_cdEll
libec.so.10:_ZNK8homspace9s_heckeopElii
libec.so.10:_ZNK8newforms14output_to_fileEii
libec.so.10:_ZNK8newforms15get_imag_periodElRN3NTL2RREi
libec.so.10:_ZNK8newforms15get_real_periodElRN3NTL2RREi
libec.so.10:_ZNK8newforms16get_both_periodsElRN3NTL2RRES2_
libec.so.10:_ZNK8newforms19full_modular_symbolERK8rationalli
libec.so.10:_ZNK8newforms19plus_modular_symbolERK8rationalli
libec.so.10:_ZNK8newforms20minus_modular_symbolERK8rationalli
libec.so.10:_ZNK8newforms26display_modular_symbol_mapEi
libec.so.10:_ZNK8newforms7displayEv
libec.so.10:_ZNK8oldforms10dimoldpartESt6vectorIlSaIlEE
libec.so.10:_ZNK8oldforms7displayEv
libec.so.10:_ZNK8symbdata5checkEv
libec.so.10:_ZNK8symbdata6index2Ell
libec.so.10:_ZNK8symbdata6symbolEl
libec.so.10:_ZNK8symbdata7displayEv
libec.so.10:_ZNK8symblist4itemEl
libec.so.10:_ZNK8symblist5indexERK4symbl
libec.so.10:_ZNK9Curvedata10minimalizeERN3NTL2ZZES2_S2_S2_
libec.so.10:_ZNK9Curvedata6outputERSo
libec.so.10:_ZNK9pointmodq5twiceEv
libec.so.10:_ZNK9pointmodq6negateEv
libec.so.10:_ZNK9pointmodq6outputERSo
libec.so.10:_ZNK9pointmodqmiERKS_
libec.so.10:_ZNK9pointmodqngEv
libec.so.10:_ZNK9pointmodqplERKS_
libec.so.10:_ZNK9quadraticixEi
libec.so.10:_ZdvRK10Interval01l
libec.so.10:_ZdvRK5mat_ii
libec.so.10:_ZdvRK5mat_ll
libec.so.10:_ZdvRK5mat_mRKN3NTL2ZZE
libec.so.10:_ZdvRK5vec_mRKN3NTL2ZZE
libec.so.10:_ZdvRK6smat_ii
libec.so.10:_ZdvRK6smat_ll
libec.so.10:_ZeqRK5mat_iS1_
libec.so.10:_ZeqRK5mat_lS1_
libec.so.10:_ZeqRK5mat_mS1_
libec.so.10:_ZeqRK5vec_iS1_
libec.so.10:_ZeqRK5vec_lS1_
libec.so.10:_ZeqRK5vec_mS1_
libec.so.10:_ZeqRK6smat_iS1_
libec.so.10:_ZeqRK6smat_lS1_
libec.so.10:_ZeqRK6svec_iRK5vec_i
libec.so.10:_ZeqRK6svec_lRK5vec_l
libec.so.10:_ZlsRSoRK10Interval01
libec.so.10:_ZlsRSoRK12Kodaira_code
libec.so.10:_ZlsRSoRK4symb
libec.so.10:_ZlsRSoRK5mat_m
libec.so.10:_ZlsRSoRK5vec_i
libec.so.10:_ZlsRSoRK5vec_l
libec.so.10:_ZlsRSoRK5vec_m
libec.so.10:_ZlsRSoRK6modsym
libec.so.10:_ZlsRSoRK6smat_i
libec.so.10:_ZlsRSoRK6smat_l
libec.so.10:_ZlsRSoRK6svec_i
libec.so.10:_ZlsRSoRK6svec_l
libec.so.10:_ZlsRSoRK8Interval
libec.so.10:_ZltRK5cubicS1_
libec.so.10:_ZmiRK5mat_iS1_
libec.so.10:_ZmiRK5mat_lS1_
libec.so.10:_ZmiRK5mat_mS1_
libec.so.10:_ZmiRK5vec_mS1_
libec.so.10:_ZmiRK6smat_iS1_
libec.so.10:_ZmiRK6smat_lS1_
libec.so.10:_ZmlR6smat_iRK5vec_i
libec.so.10:_ZmlR6smat_lRK5vec_l
libec.so.10:_ZmlRK13scaled_unimodS1_
libec.so.10:_ZmlRK5mat_iRK5vec_i
libec.so.10:_ZmlRK5mat_iS1_
libec.so.10:_ZmlRK5mat_lRK5vec_l
libec.so.10:_ZmlRK5mat_lS1_
libec.so.10:_ZmlRK5mat_mRK5vec_m
libec.so.10:_ZmlRK5mat_mS1_
libec.so.10:_ZmlRK5vec_iS1_
libec.so.10:_ZmlRK5vec_lS1_
libec.so.10:_ZmlRK5vec_mS1_
libec.so.10:_ZmlRK6smat_iRK6svec_i
libec.so.10:_ZmlRK6smat_iS1_
libec.so.10:_ZmlRK6smat_lRK6svec_l
libec.so.10:_ZmlRK6smat_lS1_
libec.so.10:_ZmlRK6svec_iRK5vec_i
libec.so.10:_ZmlRK6svec_iRK6smat_i
libec.so.10:_ZmlRK6svec_iS1_
libec.so.10:_ZmlRK6svec_lRK5vec_l
libec.so.10:_ZmlRK6svec_lRK6smat_l
libec.so.10:_ZmlRK6svec_lS1_
libec.so.10:_ZmlRK6unimodS1_
libec.so.10:_ZmlRKN3NTL2ZZERK5mat_m
libec.so.10:_ZmlRKN3NTL2ZZERK5vec_m
libec.so.10:_ZmlRKN3NTL2ZZERK9pointmodq
libec.so.10:_ZmliRK5Point
libec.so.10:_ZmliRK5mat_i
libec.so.10:_ZmliRK5mat_m
libec.so.10:_ZmliRK6smat_i
libec.so.10:_ZmllRK5mat_l
libec.so.10:_ZmllRK5mat_m
libec.so.10:_ZmllRK5vec_m
libec.so.10:_ZmllRK6smat_l
libec.so.10:_ZmllRK9pointmodq
libec.so.10:_ZneRK5mat_iS1_
libec.so.10:_ZneRK5mat_lS1_
libec.so.10:_ZneRK5mat_mS1_
libec.so.10:_ZneRK5vec_mS1_
libec.so.10:_ZneRK6smat_iS1_
libec.so.10:_ZneRK6smat_lS1_
libec.so.10:_ZngRK5mat_i
libec.so.10:_ZngRK5mat_l
libec.so.10:_ZngRK5mat_m
libec.so.10:_ZngRK5vec_m
libec.so.10:_ZngRK6smat_i
libec.so.10:_ZngRK6smat_l
libec.so.10:_ZplRK10Interval01RKN3NTL2RRE
libec.so.10:_ZplRK5mat_iS1_
libec.so.10:_ZplRK5mat_lS1_
libec.so.10:_ZplRK5mat_mS1_
libec.so.10:_ZplRK5vec_mS1_
libec.so.10:_ZplRK6smat_iS1_
libec.so.10:_ZplRK6smat_lS1_
libec.so.10:_ZpsRK5mat_i
libec.so.10:_ZpsRK5mat_l
libec.so.10:_ZpsRK5mat_m
libec.so.10:_ZpsRK5vec_m
libec.so.10:_ZpsRK6smat_i
libec.so.10:_ZpsRK6smat_l
libec.so.10:_ZrsRSiR10bigcomplex
libec.so.10:_ZrsRSiR5mat_i
libec.so.10:_ZrsRSiR5mat_l
libec.so.10:_ZrsRSiR5mat_m
libec.so.10:_ZrsRSiR5vec_i
libec.so.10:_ZrsRSiR5vec_l
libec.so.10:_ZrsRSiR5vec_m
libec.so.10:_ZrsRSiR6smat_i
libec.so.10:_ZrsRSiR6smat_l
libec.so.10:_ZrsRSiR7P2Point
libec.so.10:allperms
libec.so.10:c4c6fixer
libec.so.10:curvesort_ABDC
libec.so.10:curvesort_ACB
libec.so.10:curvesort_ACBD
libec.so.10:curvesort_ACDB
libec.so.10:curvesort_ADBC
libec.so.10:curvesort_ADCB
libec.so.10:curvesort_ADECFB
libec.so.10:curvesort_AEBDC
libec.so.10:curvesort_AECBD
libec.so.10:curvesort_AECDBF
libec.so.10:curvesort_AEDBGFC
libec.so.10:curvesort_AEDCB
libec.so.10:curvesort_AFGDEBC
libec.so.10:curvesort_AFHCGDEB
libec.so.10:curvesort_AGBDEFHC
libec.so.10:curvesort_BA
libec.so.10:curvesort_BAC
libec.so.10:curvesort_BACD
libec.so.10:curvesort_BADC
libec.so.10:curvesort_BADECF
libec.so.10:curvesort_BCA
libec.so.10:curvesort_BCAD
libec.so.10:curvesort_BCADE
libec.so.10:curvesort_BCAED
libec.so.10:curvesort_BCDA
libec.so.10:curvesort_BDAC
libec.so.10:curvesort_BDAECF
libec.so.10:curvesort_BEACD
libec.so.10:curvesort_BECAD
libec.so.10:curvesort_BECADFGH
libec.so.10:curvesort_BFADCE
libec.so.10:curvesort_CAB
libec.so.10:curvesort_CABD
libec.so.10:curvesort_CABDE
libec.so.10:curvesort_CABEDF
libec.so.10:curvesort_CAFBDE
libec.so.10:curvesort_CBA
libec.so.10:curvesort_CBAD
libec.so.10:curvesort_CDAB
libec.so.10:curvesort_CDBA
libec.so.10:curvesort_CEABDF
libec.so.10:curvesort_CEADB
libec.so.10:curvesort_CEDAB
libec.so.10:curvesort_CEDBA
libec.so.10:curvesort_DABC
libec.so.10:curvesort_DABFEC
libec.so.10:curvesort_DACB
libec.so.10:curvesort_DAECB
libec.so.10:curvesort_DBAC
libec.so.10:curvesort_DBCAE
libec.so.10:curvesort_DCAB
libec.so.10:curvesort_DCABEF
libec.so.10:curvesort_DCAEB
libec.so.10:curvesort_EABCDF
libec.so.10:curvesort_EABDC
libec.so.10:curvesort_EACBD
libec.so.10:curvesort_EBACDF
libec.so.10:curvesort_EBCAD
libec.so.10:curvesort_ECABDF
libec.so.10:curvesort_ECFBDGA
libec.so.10:curvesort_EDACB
libec.so.10:curvesort_EFCAGDB
libec.so.10:curvesort_EFGCABD
libec.so.10:curvesort_EGBAFHCD
libec.so.10:curvesort_FGACBED
libec.so.10:curvesort_FGBDACE
libec.so.10:curvesort_FGDBAEC
libec.so.10:curvesort_FGDBEAC
libec.so.10:curvesort_FGDEABC
libec.so.10:curvesort_GBEAHDFC
libec.so.10:less_newform_new
libec.so.10:less_newform_old
libec.so.10:level
libec.so.10:nsmallp
libec.so.10:one
libec.so.10:starttime
libec.so.10:stoptime
libec.so.10:the_extra_primes
libec.so.10:the_primes
libec.so.10:zero
